

Microchip MPLAB XC8 Assembler V2.32 build 20210201212658 
                                                                                               Thu Jul 29 08:15:26 2021

Microchip MPLAB XC8 C Compiler v2.32 (Free license) build 20210201212658 Og1 
     1                           	processor	16F18877
     2                           	pagewidth 120
     3                           	opt	flic
     4                           	psect	stringtext1,global,class=STRCODE,delta=2,noexec
     5                           	psect	stringtext2,global,class=STRCODE,delta=2,noexec
     6                           	psect	stringtext3,global,class=STRCODE,delta=2,noexec
     7                           	psect	stringtext4,global,class=STRCODE,delta=2,noexec
     8                           	psect	stringtext5,global,class=STRCODE,delta=2,noexec
     9                           	psect	stringtext6,global,class=STRCODE,delta=2,noexec
    10                           	psect	stringtext7,global,class=STRCODE,delta=2,noexec
    11                           	psect	stringtext8,global,class=STRCODE,delta=2,noexec
    12                           	psect	cinit,global,class=CODE,merge=1,delta=2
    13                           	psect	bssBANK0,global,class=BANK0,space=1,delta=1,noexec
    14                           	psect	clrtext,global,class=CODE,delta=2
    15                           	psect	cstackCOMMON,global,class=COMMON,space=1,delta=1,noexec
    16                           	psect	cstackBANK0,global,class=BANK0,space=1,delta=1,noexec
    17                           	psect	maintext,global,class=CODE,merge=1,split=1,delta=2
    18                           	psect	text1,local,class=CODE,merge=1,delta=2
    19                           	psect	text2,local,class=CODE,merge=1,delta=2
    20                           	psect	text3,local,class=CODE,merge=1,delta=2
    21                           	psect	text4,local,class=CODE,merge=1,delta=2
    22                           	psect	text5,local,class=CODE,merge=1,delta=2
    23                           	psect	text6,local,class=CODE,merge=1,delta=2
    24                           	psect	text7,local,class=CODE,merge=1,delta=2,group=1
    25                           	psect	text8,local,class=CODE,merge=1,delta=2,group=1
    26                           	psect	text9,local,class=CODE,merge=1,delta=2,group=1
    27                           	psect	text10,local,class=CODE,merge=1,delta=2
    28                           	psect	text11,local,class=CODE,merge=1,delta=2
    29                           	psect	text12,local,class=CODE,merge=1,delta=2
    30                           	psect	text13,local,class=CODE,merge=1,delta=2,group=1
    31                           	psect	text14,local,class=CODE,merge=1,delta=2,group=1
    32                           	psect	text15,local,class=CODE,merge=1,delta=2,group=1
    33                           	psect	text16,local,class=CODE,merge=1,delta=2,group=1
    34                           	psect	config,global,abs,ovrld,class=CONFIG,space=4,delta=2,noexec
    35                           	dabs	1,0x7E,2
    36  0000                     
    37                           ; Version 2.30
    38                           ; Generated 15/09/2020 GMT
    39                           ; 
    40                           ; Copyright © 2020, Microchip Technology Inc. and its subsidiaries ("Microchip")
    41                           ; All rights reserved.
    42                           ; 
    43                           ; This software is developed by Microchip Technology Inc. and its subsidiaries ("Microch
      +                          ip").
    44                           ; 
    45                           ; Redistribution and use in source and binary forms, with or without modification, are
    46                           ; permitted provided that the following conditions are met:
    47                           ; 
    48                           ;     1. Redistributions of source code must retain the above copyright notice, this lis
      +                          t of
    49                           ;        conditions and the following disclaimer.
    50                           ; 
    51                           ;     2. Redistributions in binary form must reproduce the above copyright notice, this 
      +                          list
    52                           ;        of conditions and the following disclaimer in the documentation and/or other
    53                           ;        materials provided with the distribution. Publication is not required when
    54                           ;        this file is used in an embedded application.
    55                           ; 
    56                           ;     3. Microchip's name may not be used to endorse or promote products derived from th
      +                          is
    57                           ;        software without specific prior written permission.
    58                           ; 
    59                           ; THIS SOFTWARE IS PROVIDED BY MICROCHIP "AS IS" AND ANY EXPRESS OR IMPLIED WARRANTIES,
    60                           ; INCLUDING, BUT NOT LIMITED TO, THE IMPLIED WARRANTIES OF MERCHANTABILITY AND FITNESS F
      +                          OR
    61                           ; PURPOSE ARE DISCLAIMED.  IN NO EVENT SHALL MICROCHIP BE LIABLE FOR ANY DIRECT, INDIREC
      +                          T,
    62                           ; INCIDENTAL, SPECIAL, EXEMPLARY, OR CONSEQUENTIAL DAMAGES (INCLUDING BUT NOT LIMITED TO
    63                           ; PROCUREMENT OF SUBSTITUTE GOODS OR SERVICES; LOSS OF USE, DATA OR PROFITS; OR BUSINESS
    64                           ; INTERRUPTION) HOWSOEVER CAUSED AND ON ANY THEORY OF LIABILITY, WHETHER IN CONTRACT, ST
      +                          RICT
    65                           ; LIABILITY, OR TORT (INCLUDING NEGLIGENCE OR OTHERWISE) ARISING IN ANY WAY OUT OF THE U
      +                          SE OF
    66                           ; THIS SOFTWARE, EVEN IF ADVISED OF THE POSSIBILITY OF SUCH DAMAGE.
    67                           ; 
    68                           ; 
    69                           ; Code-generator required, PIC16F18877 Definitions
    70                           ; 
    71                           ; SFR Addresses
    72  0000                     	;# 
    73  0001                     	;# 
    74  0002                     	;# 
    75  0003                     	;# 
    76  0004                     	;# 
    77  0005                     	;# 
    78  0006                     	;# 
    79  0007                     	;# 
    80  0008                     	;# 
    81  0009                     	;# 
    82  000A                     	;# 
    83  000B                     	;# 
    84  000C                     	;# 
    85  000D                     	;# 
    86  000E                     	;# 
    87  000F                     	;# 
    88  0010                     	;# 
    89  0011                     	;# 
    90  0012                     	;# 
    91  0013                     	;# 
    92  0014                     	;# 
    93  0015                     	;# 
    94  0016                     	;# 
    95  0017                     	;# 
    96  0018                     	;# 
    97  0019                     	;# 
    98  001A                     	;# 
    99  001C                     	;# 
   100  001C                     	;# 
   101  001D                     	;# 
   102  001D                     	;# 
   103  001E                     	;# 
   104  001F                     	;# 
   105  008C                     	;# 
   106  008C                     	;# 
   107  008D                     	;# 
   108  008E                     	;# 
   109  008E                     	;# 
   110  008F                     	;# 
   111  0090                     	;# 
   112  0090                     	;# 
   113  0091                     	;# 
   114  0093                     	;# 
   115  0094                     	;# 
   116  0095                     	;# 
   117  0096                     	;# 
   118  0097                     	;# 
   119  0098                     	;# 
   120  0099                     	;# 
   121  009A                     	;# 
   122  009B                     	;# 
   123  009C                     	;# 
   124  009D                     	;# 
   125  009E                     	;# 
   126  010C                     	;# 
   127  010D                     	;# 
   128  010E                     	;# 
   129  010E                     	;# 
   130  010F                     	;# 
   131  0110                     	;# 
   132  0110                     	;# 
   133  0111                     	;# 
   134  0112                     	;# 
   135  0112                     	;# 
   136  0113                     	;# 
   137  0114                     	;# 
   138  0114                     	;# 
   139  0115                     	;# 
   140  0116                     	;# 
   141  0116                     	;# 
   142  0117                     	;# 
   143  0119                     	;# 
   144  0119                     	;# 
   145  0119                     	;# 
   146  011A                     	;# 
   147  011A                     	;# 
   148  011A                     	;# 
   149  011B                     	;# 
   150  011B                     	;# 
   151  011B                     	;# 
   152  011B                     	;# 
   153  011B                     	;# 
   154  011C                     	;# 
   155  011C                     	;# 
   156  011C                     	;# 
   157  011D                     	;# 
   158  011D                     	;# 
   159  011D                     	;# 
   160  011E                     	;# 
   161  011E                     	;# 
   162  011E                     	;# 
   163  011F                     	;# 
   164  011F                     	;# 
   165  011F                     	;# 
   166  011F                     	;# 
   167  011F                     	;# 
   168  018C                     	;# 
   169  018D                     	;# 
   170  018E                     	;# 
   171  018F                     	;# 
   172  0190                     	;# 
   173  0191                     	;# 
   174  0192                     	;# 
   175  0196                     	;# 
   176  0197                     	;# 
   177  0198                     	;# 
   178  0199                     	;# 
   179  019A                     	;# 
   180  019B                     	;# 
   181  019C                     	;# 
   182  020C                     	;# 
   183  020C                     	;# 
   184  020D                     	;# 
   185  020E                     	;# 
   186  020F                     	;# 
   187  020F                     	;# 
   188  0210                     	;# 
   189  0210                     	;# 
   190  0211                     	;# 
   191  0211                     	;# 
   192  0212                     	;# 
   193  0212                     	;# 
   194  0213                     	;# 
   195  0214                     	;# 
   196  0215                     	;# 
   197  0215                     	;# 
   198  0216                     	;# 
   199  0216                     	;# 
   200  0217                     	;# 
   201  0217                     	;# 
   202  0218                     	;# 
   203  0218                     	;# 
   204  0219                     	;# 
   205  021A                     	;# 
   206  021B                     	;# 
   207  021B                     	;# 
   208  021C                     	;# 
   209  021C                     	;# 
   210  021D                     	;# 
   211  021D                     	;# 
   212  021E                     	;# 
   213  021F                     	;# 
   214  028C                     	;# 
   215  028C                     	;# 
   216  028D                     	;# 
   217  028D                     	;# 
   218  028E                     	;# 
   219  028F                     	;# 
   220  0290                     	;# 
   221  0290                     	;# 
   222  0291                     	;# 
   223  0292                     	;# 
   224  0292                     	;# 
   225  0293                     	;# 
   226  0293                     	;# 
   227  0294                     	;# 
   228  0295                     	;# 
   229  0296                     	;# 
   230  0296                     	;# 
   231  0297                     	;# 
   232  0298                     	;# 
   233  0298                     	;# 
   234  0299                     	;# 
   235  0299                     	;# 
   236  029A                     	;# 
   237  029B                     	;# 
   238  029C                     	;# 
   239  029C                     	;# 
   240  029D                     	;# 
   241  030C                     	;# 
   242  030C                     	;# 
   243  030D                     	;# 
   244  030E                     	;# 
   245  030F                     	;# 
   246  0310                     	;# 
   247  0310                     	;# 
   248  0311                     	;# 
   249  0312                     	;# 
   250  0313                     	;# 
   251  0314                     	;# 
   252  0314                     	;# 
   253  0315                     	;# 
   254  0316                     	;# 
   255  0317                     	;# 
   256  0318                     	;# 
   257  0318                     	;# 
   258  0319                     	;# 
   259  031A                     	;# 
   260  031B                     	;# 
   261  031C                     	;# 
   262  031C                     	;# 
   263  031D                     	;# 
   264  031E                     	;# 
   265  031F                     	;# 
   266  038C                     	;# 
   267  038C                     	;# 
   268  038D                     	;# 
   269  038E                     	;# 
   270  0390                     	;# 
   271  0390                     	;# 
   272  0391                     	;# 
   273  0392                     	;# 
   274  040C                     	;# 
   275  040D                     	;# 
   276  040E                     	;# 
   277  040F                     	;# 
   278  0410                     	;# 
   279  0411                     	;# 
   280  0416                     	;# 
   281  0416                     	;# 
   282  0417                     	;# 
   283  0418                     	;# 
   284  0418                     	;# 
   285  0419                     	;# 
   286  041A                     	;# 
   287  041A                     	;# 
   288  041B                     	;# 
   289  041C                     	;# 
   290  041C                     	;# 
   291  041D                     	;# 
   292  041E                     	;# 
   293  041F                     	;# 
   294  048C                     	;# 
   295  048C                     	;# 
   296  048D                     	;# 
   297  048E                     	;# 
   298  048F                     	;# 
   299  048F                     	;# 
   300  0490                     	;# 
   301  0491                     	;# 
   302  0492                     	;# 
   303  0492                     	;# 
   304  0493                     	;# 
   305  0494                     	;# 
   306  0495                     	;# 
   307  0495                     	;# 
   308  0496                     	;# 
   309  0497                     	;# 
   310  0498                     	;# 
   311  0499                     	;# 
   312  049A                     	;# 
   313  049B                     	;# 
   314  049C                     	;# 
   315  049D                     	;# 
   316  050C                     	;# 
   317  050C                     	;# 
   318  050D                     	;# 
   319  050E                     	;# 
   320  050F                     	;# 
   321  050F                     	;# 
   322  0510                     	;# 
   323  0511                     	;# 
   324  0512                     	;# 
   325  0512                     	;# 
   326  0513                     	;# 
   327  0514                     	;# 
   328  0515                     	;# 
   329  0515                     	;# 
   330  0516                     	;# 
   331  0517                     	;# 
   332  0518                     	;# 
   333  0519                     	;# 
   334  051A                     	;# 
   335  051B                     	;# 
   336  051C                     	;# 
   337  051D                     	;# 
   338  058C                     	;# 
   339  058C                     	;# 
   340  058D                     	;# 
   341  058E                     	;# 
   342  058F                     	;# 
   343  058F                     	;# 
   344  0590                     	;# 
   345  0591                     	;# 
   346  0592                     	;# 
   347  0593                     	;# 
   348  060C                     	;# 
   349  060D                     	;# 
   350  060E                     	;# 
   351  060F                     	;# 
   352  0610                     	;# 
   353  0611                     	;# 
   354  0612                     	;# 
   355  0613                     	;# 
   356  0614                     	;# 
   357  0616                     	;# 
   358  0617                     	;# 
   359  0618                     	;# 
   360  0619                     	;# 
   361  061A                     	;# 
   362  061B                     	;# 
   363  061C                     	;# 
   364  061D                     	;# 
   365  061E                     	;# 
   366  068C                     	;# 
   367  068D                     	;# 
   368  068E                     	;# 
   369  068F                     	;# 
   370  0690                     	;# 
   371  0691                     	;# 
   372  0692                     	;# 
   373  0693                     	;# 
   374  0694                     	;# 
   375  070C                     	;# 
   376  070D                     	;# 
   377  070E                     	;# 
   378  070F                     	;# 
   379  0710                     	;# 
   380  0711                     	;# 
   381  0712                     	;# 
   382  0713                     	;# 
   383  0714                     	;# 
   384  0716                     	;# 
   385  0717                     	;# 
   386  0718                     	;# 
   387  0719                     	;# 
   388  071A                     	;# 
   389  071B                     	;# 
   390  071C                     	;# 
   391  071D                     	;# 
   392  071E                     	;# 
   393  0796                     	;# 
   394  0797                     	;# 
   395  0798                     	;# 
   396  0799                     	;# 
   397  079A                     	;# 
   398  079B                     	;# 
   399  080C                     	;# 
   400  080D                     	;# 
   401  080E                     	;# 
   402  080F                     	;# 
   403  0810                     	;# 
   404  0811                     	;# 
   405  0812                     	;# 
   406  0813                     	;# 
   407  0814                     	;# 
   408  081A                     	;# 
   409  081B                     	;# 
   410  081C                     	;# 
   411  081D                     	;# 
   412  081E                     	;# 
   413  081F                     	;# 
   414  088C                     	;# 
   415  088D                     	;# 
   416  088E                     	;# 
   417  088F                     	;# 
   418  0890                     	;# 
   419  0891                     	;# 
   420  0892                     	;# 
   421  0893                     	;# 
   422  0895                     	;# 
   423  0896                     	;# 
   424  0897                     	;# 
   425  0898                     	;# 
   426  0899                     	;# 
   427  089A                     	;# 
   428  089B                     	;# 
   429  090C                     	;# 
   430  090E                     	;# 
   431  090F                     	;# 
   432  091F                     	;# 
   433  098F                     	;# 
   434  098F                     	;# 
   435  0990                     	;# 
   436  0991                     	;# 
   437  0992                     	;# 
   438  0993                     	;# 
   439  0994                     	;# 
   440  0995                     	;# 
   441  0996                     	;# 
   442  0997                     	;# 
   443  1E0F                     	;# 
   444  1E10                     	;# 
   445  1E11                     	;# 
   446  1E12                     	;# 
   447  1E13                     	;# 
   448  1E14                     	;# 
   449  1E15                     	;# 
   450  1E16                     	;# 
   451  1E17                     	;# 
   452  1E18                     	;# 
   453  1E19                     	;# 
   454  1E1A                     	;# 
   455  1E1B                     	;# 
   456  1E1C                     	;# 
   457  1E1D                     	;# 
   458  1E1E                     	;# 
   459  1E1F                     	;# 
   460  1E20                     	;# 
   461  1E21                     	;# 
   462  1E22                     	;# 
   463  1E23                     	;# 
   464  1E24                     	;# 
   465  1E25                     	;# 
   466  1E26                     	;# 
   467  1E27                     	;# 
   468  1E28                     	;# 
   469  1E29                     	;# 
   470  1E2A                     	;# 
   471  1E2B                     	;# 
   472  1E2C                     	;# 
   473  1E2D                     	;# 
   474  1E2E                     	;# 
   475  1E2F                     	;# 
   476  1E30                     	;# 
   477  1E31                     	;# 
   478  1E32                     	;# 
   479  1E33                     	;# 
   480  1E34                     	;# 
   481  1E35                     	;# 
   482  1E36                     	;# 
   483  1E37                     	;# 
   484  1E8F                     	;# 
   485  1E90                     	;# 
   486  1E91                     	;# 
   487  1E92                     	;# 
   488  1E93                     	;# 
   489  1E94                     	;# 
   490  1E95                     	;# 
   491  1E96                     	;# 
   492  1E97                     	;# 
   493  1E9C                     	;# 
   494  1E9D                     	;# 
   495  1E9E                     	;# 
   496  1EA1                     	;# 
   497  1EA2                     	;# 
   498  1EA3                     	;# 
   499  1EA4                     	;# 
   500  1EA5                     	;# 
   501  1EA9                     	;# 
   502  1EAA                     	;# 
   503  1EAB                     	;# 
   504  1EAC                     	;# 
   505  1EB1                     	;# 
   506  1EB2                     	;# 
   507  1EB3                     	;# 
   508  1EB8                     	;# 
   509  1EB9                     	;# 
   510  1EBA                     	;# 
   511  1EBB                     	;# 
   512  1EBC                     	;# 
   513  1EBD                     	;# 
   514  1EBE                     	;# 
   515  1EC3                     	;# 
   516  1EC5                     	;# 
   517  1EC6                     	;# 
   518  1EC7                     	;# 
   519  1EC8                     	;# 
   520  1EC9                     	;# 
   521  1ECA                     	;# 
   522  1ECB                     	;# 
   523  1ECC                     	;# 
   524  1F10                     	;# 
   525  1F11                     	;# 
   526  1F12                     	;# 
   527  1F13                     	;# 
   528  1F14                     	;# 
   529  1F15                     	;# 
   530  1F16                     	;# 
   531  1F17                     	;# 
   532  1F18                     	;# 
   533  1F19                     	;# 
   534  1F1A                     	;# 
   535  1F1B                     	;# 
   536  1F1C                     	;# 
   537  1F1D                     	;# 
   538  1F1E                     	;# 
   539  1F1F                     	;# 
   540  1F20                     	;# 
   541  1F21                     	;# 
   542  1F22                     	;# 
   543  1F23                     	;# 
   544  1F24                     	;# 
   545  1F25                     	;# 
   546  1F26                     	;# 
   547  1F27                     	;# 
   548  1F28                     	;# 
   549  1F29                     	;# 
   550  1F2A                     	;# 
   551  1F2B                     	;# 
   552  1F2C                     	;# 
   553  1F2D                     	;# 
   554  1F2E                     	;# 
   555  1F2F                     	;# 
   556  1F30                     	;# 
   557  1F31                     	;# 
   558  1F32                     	;# 
   559  1F38                     	;# 
   560  1F39                     	;# 
   561  1F3A                     	;# 
   562  1F3B                     	;# 
   563  1F3C                     	;# 
   564  1F3D                     	;# 
   565  1F3E                     	;# 
   566  1F3F                     	;# 
   567  1F40                     	;# 
   568  1F41                     	;# 
   569  1F43                     	;# 
   570  1F44                     	;# 
   571  1F45                     	;# 
   572  1F46                     	;# 
   573  1F47                     	;# 
   574  1F48                     	;# 
   575  1F49                     	;# 
   576  1F4A                     	;# 
   577  1F4B                     	;# 
   578  1F4C                     	;# 
   579  1F4E                     	;# 
   580  1F4F                     	;# 
   581  1F50                     	;# 
   582  1F51                     	;# 
   583  1F52                     	;# 
   584  1F53                     	;# 
   585  1F54                     	;# 
   586  1F55                     	;# 
   587  1F56                     	;# 
   588  1F57                     	;# 
   589  1F59                     	;# 
   590  1F5A                     	;# 
   591  1F5B                     	;# 
   592  1F5C                     	;# 
   593  1F5D                     	;# 
   594  1F61                     	;# 
   595  1F62                     	;# 
   596  1F64                     	;# 
   597  1F65                     	;# 
   598  1F66                     	;# 
   599  1F67                     	;# 
   600  1F68                     	;# 
   601  1F69                     	;# 
   602  1F6A                     	;# 
   603  1F6B                     	;# 
   604  1F6C                     	;# 
   605  1F6D                     	;# 
   606  1FE4                     	;# 
   607  1FE5                     	;# 
   608  1FE6                     	;# 
   609  1FE7                     	;# 
   610  1FE8                     	;# 
   611  1FE9                     	;# 
   612  1FEA                     	;# 
   613  1FEB                     	;# 
   614  1FED                     	;# 
   615  1FEE                     	;# 
   616  1FEF                     	;# 
   617  0000                     	;# 
   618  0001                     	;# 
   619  0002                     	;# 
   620  0003                     	;# 
   621  0004                     	;# 
   622  0005                     	;# 
   623  0006                     	;# 
   624  0007                     	;# 
   625  0008                     	;# 
   626  0009                     	;# 
   627  000A                     	;# 
   628  000B                     	;# 
   629  000C                     	;# 
   630  000D                     	;# 
   631  000E                     	;# 
   632  000F                     	;# 
   633  0010                     	;# 
   634  0011                     	;# 
   635  0012                     	;# 
   636  0013                     	;# 
   637  0014                     	;# 
   638  0015                     	;# 
   639  0016                     	;# 
   640  0017                     	;# 
   641  0018                     	;# 
   642  0019                     	;# 
   643  001A                     	;# 
   644  001C                     	;# 
   645  001C                     	;# 
   646  001D                     	;# 
   647  001D                     	;# 
   648  001E                     	;# 
   649  001F                     	;# 
   650  008C                     	;# 
   651  008C                     	;# 
   652  008D                     	;# 
   653  008E                     	;# 
   654  008E                     	;# 
   655  008F                     	;# 
   656  0090                     	;# 
   657  0090                     	;# 
   658  0091                     	;# 
   659  0093                     	;# 
   660  0094                     	;# 
   661  0095                     	;# 
   662  0096                     	;# 
   663  0097                     	;# 
   664  0098                     	;# 
   665  0099                     	;# 
   666  009A                     	;# 
   667  009B                     	;# 
   668  009C                     	;# 
   669  009D                     	;# 
   670  009E                     	;# 
   671  010C                     	;# 
   672  010D                     	;# 
   673  010E                     	;# 
   674  010E                     	;# 
   675  010F                     	;# 
   676  0110                     	;# 
   677  0110                     	;# 
   678  0111                     	;# 
   679  0112                     	;# 
   680  0112                     	;# 
   681  0113                     	;# 
   682  0114                     	;# 
   683  0114                     	;# 
   684  0115                     	;# 
   685  0116                     	;# 
   686  0116                     	;# 
   687  0117                     	;# 
   688  0119                     	;# 
   689  0119                     	;# 
   690  0119                     	;# 
   691  011A                     	;# 
   692  011A                     	;# 
   693  011A                     	;# 
   694  011B                     	;# 
   695  011B                     	;# 
   696  011B                     	;# 
   697  011B                     	;# 
   698  011B                     	;# 
   699  011C                     	;# 
   700  011C                     	;# 
   701  011C                     	;# 
   702  011D                     	;# 
   703  011D                     	;# 
   704  011D                     	;# 
   705  011E                     	;# 
   706  011E                     	;# 
   707  011E                     	;# 
   708  011F                     	;# 
   709  011F                     	;# 
   710  011F                     	;# 
   711  011F                     	;# 
   712  011F                     	;# 
   713  018C                     	;# 
   714  018D                     	;# 
   715  018E                     	;# 
   716  018F                     	;# 
   717  0190                     	;# 
   718  0191                     	;# 
   719  0192                     	;# 
   720  0196                     	;# 
   721  0197                     	;# 
   722  0198                     	;# 
   723  0199                     	;# 
   724  019A                     	;# 
   725  019B                     	;# 
   726  019C                     	;# 
   727  020C                     	;# 
   728  020C                     	;# 
   729  020D                     	;# 
   730  020E                     	;# 
   731  020F                     	;# 
   732  020F                     	;# 
   733  0210                     	;# 
   734  0210                     	;# 
   735  0211                     	;# 
   736  0211                     	;# 
   737  0212                     	;# 
   738  0212                     	;# 
   739  0213                     	;# 
   740  0214                     	;# 
   741  0215                     	;# 
   742  0215                     	;# 
   743  0216                     	;# 
   744  0216                     	;# 
   745  0217                     	;# 
   746  0217                     	;# 
   747  0218                     	;# 
   748  0218                     	;# 
   749  0219                     	;# 
   750  021A                     	;# 
   751  021B                     	;# 
   752  021B                     	;# 
   753  021C                     	;# 
   754  021C                     	;# 
   755  021D                     	;# 
   756  021D                     	;# 
   757  021E                     	;# 
   758  021F                     	;# 
   759  028C                     	;# 
   760  028C                     	;# 
   761  028D                     	;# 
   762  028D                     	;# 
   763  028E                     	;# 
   764  028F                     	;# 
   765  0290                     	;# 
   766  0290                     	;# 
   767  0291                     	;# 
   768  0292                     	;# 
   769  0292                     	;# 
   770  0293                     	;# 
   771  0293                     	;# 
   772  0294                     	;# 
   773  0295                     	;# 
   774  0296                     	;# 
   775  0296                     	;# 
   776  0297                     	;# 
   777  0298                     	;# 
   778  0298                     	;# 
   779  0299                     	;# 
   780  0299                     	;# 
   781  029A                     	;# 
   782  029B                     	;# 
   783  029C                     	;# 
   784  029C                     	;# 
   785  029D                     	;# 
   786  030C                     	;# 
   787  030C                     	;# 
   788  030D                     	;# 
   789  030E                     	;# 
   790  030F                     	;# 
   791  0310                     	;# 
   792  0310                     	;# 
   793  0311                     	;# 
   794  0312                     	;# 
   795  0313                     	;# 
   796  0314                     	;# 
   797  0314                     	;# 
   798  0315                     	;# 
   799  0316                     	;# 
   800  0317                     	;# 
   801  0318                     	;# 
   802  0318                     	;# 
   803  0319                     	;# 
   804  031A                     	;# 
   805  031B                     	;# 
   806  031C                     	;# 
   807  031C                     	;# 
   808  031D                     	;# 
   809  031E                     	;# 
   810  031F                     	;# 
   811  038C                     	;# 
   812  038C                     	;# 
   813  038D                     	;# 
   814  038E                     	;# 
   815  0390                     	;# 
   816  0390                     	;# 
   817  0391                     	;# 
   818  0392                     	;# 
   819  040C                     	;# 
   820  040D                     	;# 
   821  040E                     	;# 
   822  040F                     	;# 
   823  0410                     	;# 
   824  0411                     	;# 
   825  0416                     	;# 
   826  0416                     	;# 
   827  0417                     	;# 
   828  0418                     	;# 
   829  0418                     	;# 
   830  0419                     	;# 
   831  041A                     	;# 
   832  041A                     	;# 
   833  041B                     	;# 
   834  041C                     	;# 
   835  041C                     	;# 
   836  041D                     	;# 
   837  041E                     	;# 
   838  041F                     	;# 
   839  048C                     	;# 
   840  048C                     	;# 
   841  048D                     	;# 
   842  048E                     	;# 
   843  048F                     	;# 
   844  048F                     	;# 
   845  0490                     	;# 
   846  0491                     	;# 
   847  0492                     	;# 
   848  0492                     	;# 
   849  0493                     	;# 
   850  0494                     	;# 
   851  0495                     	;# 
   852  0495                     	;# 
   853  0496                     	;# 
   854  0497                     	;# 
   855  0498                     	;# 
   856  0499                     	;# 
   857  049A                     	;# 
   858  049B                     	;# 
   859  049C                     	;# 
   860  049D                     	;# 
   861  050C                     	;# 
   862  050C                     	;# 
   863  050D                     	;# 
   864  050E                     	;# 
   865  050F                     	;# 
   866  050F                     	;# 
   867  0510                     	;# 
   868  0511                     	;# 
   869  0512                     	;# 
   870  0512                     	;# 
   871  0513                     	;# 
   872  0514                     	;# 
   873  0515                     	;# 
   874  0515                     	;# 
   875  0516                     	;# 
   876  0517                     	;# 
   877  0518                     	;# 
   878  0519                     	;# 
   879  051A                     	;# 
   880  051B                     	;# 
   881  051C                     	;# 
   882  051D                     	;# 
   883  058C                     	;# 
   884  058C                     	;# 
   885  058D                     	;# 
   886  058E                     	;# 
   887  058F                     	;# 
   888  058F                     	;# 
   889  0590                     	;# 
   890  0591                     	;# 
   891  0592                     	;# 
   892  0593                     	;# 
   893  060C                     	;# 
   894  060D                     	;# 
   895  060E                     	;# 
   896  060F                     	;# 
   897  0610                     	;# 
   898  0611                     	;# 
   899  0612                     	;# 
   900  0613                     	;# 
   901  0614                     	;# 
   902  0616                     	;# 
   903  0617                     	;# 
   904  0618                     	;# 
   905  0619                     	;# 
   906  061A                     	;# 
   907  061B                     	;# 
   908  061C                     	;# 
   909  061D                     	;# 
   910  061E                     	;# 
   911  068C                     	;# 
   912  068D                     	;# 
   913  068E                     	;# 
   914  068F                     	;# 
   915  0690                     	;# 
   916  0691                     	;# 
   917  0692                     	;# 
   918  0693                     	;# 
   919  0694                     	;# 
   920  070C                     	;# 
   921  070D                     	;# 
   922  070E                     	;# 
   923  070F                     	;# 
   924  0710                     	;# 
   925  0711                     	;# 
   926  0712                     	;# 
   927  0713                     	;# 
   928  0714                     	;# 
   929  0716                     	;# 
   930  0717                     	;# 
   931  0718                     	;# 
   932  0719                     	;# 
   933  071A                     	;# 
   934  071B                     	;# 
   935  071C                     	;# 
   936  071D                     	;# 
   937  071E                     	;# 
   938  0796                     	;# 
   939  0797                     	;# 
   940  0798                     	;# 
   941  0799                     	;# 
   942  079A                     	;# 
   943  079B                     	;# 
   944  080C                     	;# 
   945  080D                     	;# 
   946  080E                     	;# 
   947  080F                     	;# 
   948  0810                     	;# 
   949  0811                     	;# 
   950  0812                     	;# 
   951  0813                     	;# 
   952  0814                     	;# 
   953  081A                     	;# 
   954  081B                     	;# 
   955  081C                     	;# 
   956  081D                     	;# 
   957  081E                     	;# 
   958  081F                     	;# 
   959  088C                     	;# 
   960  088D                     	;# 
   961  088E                     	;# 
   962  088F                     	;# 
   963  0890                     	;# 
   964  0891                     	;# 
   965  0892                     	;# 
   966  0893                     	;# 
   967  0895                     	;# 
   968  0896                     	;# 
   969  0897                     	;# 
   970  0898                     	;# 
   971  0899                     	;# 
   972  089A                     	;# 
   973  089B                     	;# 
   974  090C                     	;# 
   975  090E                     	;# 
   976  090F                     	;# 
   977  091F                     	;# 
   978  098F                     	;# 
   979  098F                     	;# 
   980  0990                     	;# 
   981  0991                     	;# 
   982  0992                     	;# 
   983  0993                     	;# 
   984  0994                     	;# 
   985  0995                     	;# 
   986  0996                     	;# 
   987  0997                     	;# 
   988  1E0F                     	;# 
   989  1E10                     	;# 
   990  1E11                     	;# 
   991  1E12                     	;# 
   992  1E13                     	;# 
   993  1E14                     	;# 
   994  1E15                     	;# 
   995  1E16                     	;# 
   996  1E17                     	;# 
   997  1E18                     	;# 
   998  1E19                     	;# 
   999  1E1A                     	;# 
  1000  1E1B                     	;# 
  1001  1E1C                     	;# 
  1002  1E1D                     	;# 
  1003  1E1E                     	;# 
  1004  1E1F                     	;# 
  1005  1E20                     	;# 
  1006  1E21                     	;# 
  1007  1E22                     	;# 
  1008  1E23                     	;# 
  1009  1E24                     	;# 
  1010  1E25                     	;# 
  1011  1E26                     	;# 
  1012  1E27                     	;# 
  1013  1E28                     	;# 
  1014  1E29                     	;# 
  1015  1E2A                     	;# 
  1016  1E2B                     	;# 
  1017  1E2C                     	;# 
  1018  1E2D                     	;# 
  1019  1E2E                     	;# 
  1020  1E2F                     	;# 
  1021  1E30                     	;# 
  1022  1E31                     	;# 
  1023  1E32                     	;# 
  1024  1E33                     	;# 
  1025  1E34                     	;# 
  1026  1E35                     	;# 
  1027  1E36                     	;# 
  1028  1E37                     	;# 
  1029  1E8F                     	;# 
  1030  1E90                     	;# 
  1031  1E91                     	;# 
  1032  1E92                     	;# 
  1033  1E93                     	;# 
  1034  1E94                     	;# 
  1035  1E95                     	;# 
  1036  1E96                     	;# 
  1037  1E97                     	;# 
  1038  1E9C                     	;# 
  1039  1E9D                     	;# 
  1040  1E9E                     	;# 
  1041  1EA1                     	;# 
  1042  1EA2                     	;# 
  1043  1EA3                     	;# 
  1044  1EA4                     	;# 
  1045  1EA5                     	;# 
  1046  1EA9                     	;# 
  1047  1EAA                     	;# 
  1048  1EAB                     	;# 
  1049  1EAC                     	;# 
  1050  1EB1                     	;# 
  1051  1EB2                     	;# 
  1052  1EB3                     	;# 
  1053  1EB8                     	;# 
  1054  1EB9                     	;# 
  1055  1EBA                     	;# 
  1056  1EBB                     	;# 
  1057  1EBC                     	;# 
  1058  1EBD                     	;# 
  1059  1EBE                     	;# 
  1060  1EC3                     	;# 
  1061  1EC5                     	;# 
  1062  1EC6                     	;# 
  1063  1EC7                     	;# 
  1064  1EC8                     	;# 
  1065  1EC9                     	;# 
  1066  1ECA                     	;# 
  1067  1ECB                     	;# 
  1068  1ECC                     	;# 
  1069  1F10                     	;# 
  1070  1F11                     	;# 
  1071  1F12                     	;# 
  1072  1F13                     	;# 
  1073  1F14                     	;# 
  1074  1F15                     	;# 
  1075  1F16                     	;# 
  1076  1F17                     	;# 
  1077  1F18                     	;# 
  1078  1F19                     	;# 
  1079  1F1A                     	;# 
  1080  1F1B                     	;# 
  1081  1F1C                     	;# 
  1082  1F1D                     	;# 
  1083  1F1E                     	;# 
  1084  1F1F                     	;# 
  1085  1F20                     	;# 
  1086  1F21                     	;# 
  1087  1F22                     	;# 
  1088  1F23                     	;# 
  1089  1F24                     	;# 
  1090  1F25                     	;# 
  1091  1F26                     	;# 
  1092  1F27                     	;# 
  1093  1F28                     	;# 
  1094  1F29                     	;# 
  1095  1F2A                     	;# 
  1096  1F2B                     	;# 
  1097  1F2C                     	;# 
  1098  1F2D                     	;# 
  1099  1F2E                     	;# 
  1100  1F2F                     	;# 
  1101  1F30                     	;# 
  1102  1F31                     	;# 
  1103  1F32                     	;# 
  1104  1F38                     	;# 
  1105  1F39                     	;# 
  1106  1F3A                     	;# 
  1107  1F3B                     	;# 
  1108  1F3C                     	;# 
  1109  1F3D                     	;# 
  1110  1F3E                     	;# 
  1111  1F3F                     	;# 
  1112  1F40                     	;# 
  1113  1F41                     	;# 
  1114  1F43                     	;# 
  1115  1F44                     	;# 
  1116  1F45                     	;# 
  1117  1F46                     	;# 
  1118  1F47                     	;# 
  1119  1F48                     	;# 
  1120  1F49                     	;# 
  1121  1F4A                     	;# 
  1122  1F4B                     	;# 
  1123  1F4C                     	;# 
  1124  1F4E                     	;# 
  1125  1F4F                     	;# 
  1126  1F50                     	;# 
  1127  1F51                     	;# 
  1128  1F52                     	;# 
  1129  1F53                     	;# 
  1130  1F54                     	;# 
  1131  1F55                     	;# 
  1132  1F56                     	;# 
  1133  1F57                     	;# 
  1134  1F59                     	;# 
  1135  1F5A                     	;# 
  1136  1F5B                     	;# 
  1137  1F5C                     	;# 
  1138  1F5D                     	;# 
  1139  1F61                     	;# 
  1140  1F62                     	;# 
  1141  1F64                     	;# 
  1142  1F65                     	;# 
  1143  1F66                     	;# 
  1144  1F67                     	;# 
  1145  1F68                     	;# 
  1146  1F69                     	;# 
  1147  1F6A                     	;# 
  1148  1F6B                     	;# 
  1149  1F6C                     	;# 
  1150  1F6D                     	;# 
  1151  1FE4                     	;# 
  1152  1FE5                     	;# 
  1153  1FE6                     	;# 
  1154  1FE7                     	;# 
  1155  1FE8                     	;# 
  1156  1FE9                     	;# 
  1157  1FEA                     	;# 
  1158  1FEB                     	;# 
  1159  1FED                     	;# 
  1160  1FEE                     	;# 
  1161  1FEF                     	;# 
  1162  000D                     _PORTBbits	set	13
  1163  001C                     _TMR0L	set	28
  1164  001D                     _TMR0H	set	29
  1165  001F                     _T0CON1bits	set	31
  1166  001E                     _T0CON0bits	set	30
  1167  0017                     _LATBbits	set	23
  1168  0012                     _TRISBbits	set	18
  1169  0011                     _TRISAbits	set	17
  1170  0013                     _TRISCbits	set	19
  1171  0063                     _RA3	set	99
  1172  0062                     _RA2	set	98
  1173  0061                     _RA1	set	97
  1174  0060                     _RA0	set	96
  1175  0068                     _RB0	set	104
  1176  0069                     _RB1	set	105
  1177  011A                     _TXREG	set	282
  1178  011D                     _RC1STAbits	set	285
  1179  011E                     _TX1STAbits	set	286
  1180  011F                     _BAUD1CONbits	set	287
  1181  011B                     _SP1BRGL	set	283
  1182  011C                     _SP1BRGH	set	284
  1183  021E                     _CCPTMRS0	set	542
  1184  028E                     _T2CON	set	654
  1185  0290                     _T2CLKCON	set	656
  1186  028D                     _PR2	set	653
  1187  0311                     _CCPR2H	set	785
  1188  0310                     _CCPR2L	set	784
  1189  0312                     _CCP2CON	set	786
  1190  387C                     _TXIF	set	14460
  1191  1F43                     _ANSELB	set	8003
  1192  1F1D                     _RB5PPS	set	7965
  1193  1F43                     _ANSELBbits	set	8003
  1194  1F38                     _ANSELAbits	set	7992
  1195  1F26                     _RC6PPS	set	7974
  1196  1F4E                     _ANSELCbits	set	8014
  1197                           
  1198                           	psect	stringtext1
  1199  0800                     __pstringtext1:
  1200  0800                     STR_1:
  1201  0800  345B               	retlw	91	;'['
  1202  0801  342A               	retlw	42	;'*'
  1203  0802  345D               	retlw	93	;']'
  1204  0803  3453               	retlw	83	;'S'
  1205  0804  3465               	retlw	101	;'e'
  1206  0805  3472               	retlw	114	;'r'
  1207  0806  3469               	retlw	105	;'i'
  1208  0807  3461               	retlw	97	;'a'
  1209  0808  346C               	retlw	108	;'l'
  1210  0809  3420               	retlw	32	;' '
  1211  080A  3443               	retlw	67	;'C'
  1212  080B  346F               	retlw	111	;'o'
  1213  080C  346E               	retlw	110	;'n'
  1214  080D  346E               	retlw	110	;'n'
  1215  080E  3465               	retlw	101	;'e'
  1216  080F  3463               	retlw	99	;'c'
  1217  0810  3474               	retlw	116	;'t'
  1218  0811  3469               	retlw	105	;'i'
  1219  0812  346F               	retlw	111	;'o'
  1220  0813  346E               	retlw	110	;'n'
  1221  0814  3420               	retlw	32	;' '
  1222  0815  3473               	retlw	115	;'s'
  1223  0816  3475               	retlw	117	;'u'
  1224  0817  3463               	retlw	99	;'c'
  1225  0818  3463               	retlw	99	;'c'
  1226  0819  3465               	retlw	101	;'e'
  1227  081A  3473               	retlw	115	;'s'
  1228  081B  3473               	retlw	115	;'s'
  1229  081C  3466               	retlw	102	;'f'
  1230  081D  3475               	retlw	117	;'u'
  1231  081E  346C               	retlw	108	;'l'
  1232  081F  340D               	retlw	13
  1233  0820  340A               	retlw	10
  1234  0821  3400               	retlw	0
  1235                           
  1236                           	psect	stringtext2
  1237  0822                     __pstringtext2:
  1238  0822                     STR_6:
  1239  0822  3409               	retlw	9
  1240  0823  3450               	retlw	80	;'P'
  1241  0824  3457               	retlw	87	;'W'
  1242  0825  344D               	retlw	77	;'M'
  1243  0826  3420               	retlw	32	;' '
  1244  0827  3444               	retlw	68	;'D'
  1245  0828  3475               	retlw	117	;'u'
  1246  0829  3474               	retlw	116	;'t'
  1247  082A  3479               	retlw	121	;'y'
  1248  082B  3420               	retlw	32	;' '
  1249  082C  3443               	retlw	67	;'C'
  1250  082D  3479               	retlw	121	;'y'
  1251  082E  3463               	retlw	99	;'c'
  1252  082F  346C               	retlw	108	;'l'
  1253  0830  3465               	retlw	101	;'e'
  1254  0831  3420               	retlw	32	;' '
  1255  0832  343D               	retlw	61	;'='
  1256  0833  3420               	retlw	32	;' '
  1257  0834  3400               	retlw	0
  1258                           
  1259                           	psect	stringtext3
  1260  0835                     __pstringtext3:
  1261  0835                     STR_8:
  1262  0835  344F               	retlw	79	;'O'
  1263  0836  3475               	retlw	117	;'u'
  1264  0837  3474               	retlw	116	;'t'
  1265  0838  3420               	retlw	32	;' '
  1266  0839  346F               	retlw	111	;'o'
  1267  083A  3466               	retlw	102	;'f'
  1268  083B  3420               	retlw	32	;' '
  1269  083C  3452               	retlw	82	;'R'
  1270  083D  3461               	retlw	97	;'a'
  1271  083E  346E               	retlw	110	;'n'
  1272  083F  3467               	retlw	103	;'g'
  1273  0840  3465               	retlw	101	;'e'
  1274  0841  340D               	retlw	13
  1275  0842  340A               	retlw	10
  1276  0843  3400               	retlw	0
  1277                           
  1278                           	psect	stringtext4
  1279  0844                     __pstringtext4:
  1280  0844                     STR_2:
  1281  0844  3444               	retlw	68	;'D'
  1282  0845  3469               	retlw	105	;'i'
  1283  0846  3473               	retlw	115	;'s'
  1284  0847  3474               	retlw	116	;'t'
  1285  0848  3461               	retlw	97	;'a'
  1286  0849  346E               	retlw	110	;'n'
  1287  084A  3463               	retlw	99	;'c'
  1288  084B  3465               	retlw	101	;'e'
  1289  084C  3420               	retlw	32	;' '
  1290  084D  343D               	retlw	61	;'='
  1291  084E  3420               	retlw	32	;' '
  1292  084F  3400               	retlw	0
  1293                           
  1294                           	psect	stringtext5
  1295  0850                     __pstringtext5:
  1296  0850                     STR_4:
  1297  0850  3409               	retlw	9
  1298  0851  3441               	retlw	65	;'A'
  1299  0852  346E               	retlw	110	;'n'
  1300  0853  3467               	retlw	103	;'g'
  1301  0854  346C               	retlw	108	;'l'
  1302  0855  3465               	retlw	101	;'e'
  1303  0856  3420               	retlw	32	;' '
  1304  0857  343D               	retlw	61	;'='
  1305  0858  3420               	retlw	32	;' '
  1306  0859  3400               	retlw	0
  1307                           
  1308                           	psect	stringtext6
  1309  085A                     __pstringtext6:
  1310  085A                     STR_5:
  1311  085A  3420               	retlw	32	;' '
  1312  085B  3464               	retlw	100	;'d'
  1313  085C  3465               	retlw	101	;'e'
  1314  085D  3467               	retlw	103	;'g'
  1315  085E  3400               	retlw	0
  1316                           
  1317                           	psect	stringtext7
  1318  085F                     __pstringtext7:
  1319  085F                     STR_3:
  1320  085F  3420               	retlw	32	;' '
  1321  0860  3463               	retlw	99	;'c'
  1322  0861  346D               	retlw	109	;'m'
  1323  0862  3400               	retlw	0
  1324                           
  1325                           	psect	stringtext8
  1326  0000                     __pstringtext8:
  1327  0841                     
  1328                           	psect	cinit
  1329  07F5                     start_initialization:	
  1330                           ; #config settings
  1331                           
  1332  07F5                     __initialization:
  1333                           
  1334                           ; Clear objects allocated to BANK0
  1335  07F5  3049               	movlw	low __pbssBANK0
  1336  07F6  0084               	movwf	4
  1337  07F7  3000               	movlw	high __pbssBANK0
  1338  07F8  0085               	movwf	5
  1339  07F9  300E               	movlw	14
  1340  07FA  3180  20B8  3187   	fcall	clear_ram0
  1341  07FD                     end_of_initialization:	
  1342                           ;End of C runtime variable initialization code
  1343                           
  1344  07FD                     __end_of__initialization:
  1345  07FD  0140               	movlb	0
  1346  07FE  3184  2C87         	ljmp	_main	;jump to C main() function
  1347                           
  1348                           	psect	bssBANK0
  1349  0049                     __pbssBANK0:
  1350  0049                     _a:
  1351  0049                     	ds	2
  1352  004B                     itoa@buffer:
  1353  004B                     	ds	12
  1354                           
  1355                           	psect	clrtext
  1356  00B8                     clear_ram0:	
  1357                           ;	Called with FSR0 containing the base address, and
  1358                           ;	WREG with the size to clear
  1359                           
  1360  00B8  0064               	clrwdt	;clear the watchdog before getting into this loop
  1361  00B9                     clrloop0:
  1362  00B9  0180               	clrf	0	;clear RAM location pointed to by FSR
  1363  00BA  3101               	addfsr 0,1
  1364  00BB  0B89               	decfsz	9,f	;Have we reached the end of clearing yet?
  1365  00BC  28B9               	goto	clrloop0	;have we reached the end yet?
  1366  00BD  3400               	retlw	0	;all done for this memory range, return
  1367                           
  1368                           	psect	cstackCOMMON
  1369  0070                     __pcstackCOMMON:
  1370  0070                     ?_cfg_eusart:
  1371  0070                     ??_cfg_eusart:	
  1372                           ; 1 bytes @ 0x0
  1373                           
  1374  0070                     ?_cfg_pwm:	
  1375                           ; 1 bytes @ 0x0
  1376                           
  1377  0070                     ??_cfg_pwm:	
  1378                           ; 1 bytes @ 0x0
  1379                           
  1380  0070                     ?_send_char:	
  1381                           ; 1 bytes @ 0x0
  1382                           
  1383  0070                     ??_send_char:	
  1384                           ; 1 bytes @ 0x0
  1385                           
  1386  0070                     ?_ranging_sys_init:	
  1387                           ; 1 bytes @ 0x0
  1388                           
  1389  0070                     ??_ranging_sys_init:	
  1390                           ; 1 bytes @ 0x0
  1391                           
  1392  0070                     ?_main:	
  1393                           ; 1 bytes @ 0x0
  1394                           
  1395  0070                     ?__Umul8_16:	
  1396                           ; 1 bytes @ 0x0
  1397                           
  1398  0070                     ?_calcAngle:	
  1399                           ; 2 bytes @ 0x0
  1400                           
  1401  0070                     ?___wmul:	
  1402                           ; 2 bytes @ 0x0
  1403                           
  1404  0070                     ?___awdiv:	
  1405                           ; 2 bytes @ 0x0
  1406                           
  1407  0070                     ?___awmod:	
  1408                           ; 2 bytes @ 0x0
  1409                           
  1410  0070                     ?___xxtofl:	
  1411                           ; 2 bytes @ 0x0
  1412                           
  1413  0070                     send_char@word:	
  1414                           ; 4 bytes @ 0x0
  1415                           
  1416  0070                     __Umul8_16@multiplicand:	
  1417                           ; 1 bytes @ 0x0
  1418                           
  1419  0070                     ___wmul@multiplier:	
  1420                           ; 1 bytes @ 0x0
  1421                           
  1422  0070                     ___awdiv@divisor:	
  1423                           ; 2 bytes @ 0x0
  1424                           
  1425  0070                     ___awmod@divisor:	
  1426                           ; 2 bytes @ 0x0
  1427                           
  1428  0070                     ___xxtofl@val:	
  1429                           ; 2 bytes @ 0x0
  1430                           
  1431                           
  1432                           ; 4 bytes @ 0x0
  1433  0070                     	ds	2
  1434  0072                     ??__Umul8_16:
  1435  0072                     ??_calcAngle:	
  1436                           ; 1 bytes @ 0x2
  1437                           
  1438  0072                     calcAngle@angle:	
  1439                           ; 1 bytes @ 0x2
  1440                           
  1441  0072                     ___wmul@multiplicand:	
  1442                           ; 2 bytes @ 0x2
  1443                           
  1444  0072                     ___awdiv@dividend:	
  1445                           ; 2 bytes @ 0x2
  1446                           
  1447  0072                     ___awmod@dividend:	
  1448                           ; 2 bytes @ 0x2
  1449                           
  1450                           
  1451                           ; 2 bytes @ 0x2
  1452  0072                     	ds	2
  1453  0074                     ??___wmul:
  1454  0074                     ??___awdiv:	
  1455                           ; 1 bytes @ 0x4
  1456                           
  1457  0074                     ??___awmod:	
  1458                           ; 1 bytes @ 0x4
  1459                           
  1460  0074                     ??___xxtofl:	
  1461                           ; 1 bytes @ 0x4
  1462                           
  1463  0074                     ___wmul@product:	
  1464                           ; 1 bytes @ 0x4
  1465                           
  1466  0074                     __Umul8_16@product:	
  1467                           ; 2 bytes @ 0x4
  1468                           
  1469                           
  1470                           ; 2 bytes @ 0x4
  1471  0074                     	ds	1
  1472  0075                     ___awdiv@counter:
  1473  0075                     ___awmod@counter:	
  1474                           ; 1 bytes @ 0x5
  1475                           
  1476                           
  1477                           ; 1 bytes @ 0x5
  1478  0075                     	ds	1
  1479  0076                     ___awdiv@sign:
  1480  0076                     ___awmod@sign:	
  1481                           ; 1 bytes @ 0x6
  1482                           
  1483  0076                     __Umul8_16@word_mpld:	
  1484                           ; 1 bytes @ 0x6
  1485                           
  1486                           
  1487                           ; 2 bytes @ 0x6
  1488  0076                     	ds	1
  1489  0077                     ___awdiv@quotient:
  1490                           
  1491                           ; 2 bytes @ 0x7
  1492  0077                     	ds	1
  1493  0078                     __Umul8_16@multiplier:
  1494  0078                     ___xxtofl@sign:	
  1495                           ; 1 bytes @ 0x8
  1496                           
  1497                           
  1498                           ; 1 bytes @ 0x8
  1499  0078                     	ds	1
  1500  0079                     ?_itoa:
  1501  0079                     ?_dpsw_to_dc:	
  1502                           ; 1 bytes @ 0x9
  1503                           
  1504  0079                     ___xxtofl@exp:	
  1505                           ; 2 bytes @ 0x9
  1506                           
  1507  0079                     itoa@value:	
  1508                           ; 1 bytes @ 0x9
  1509                           
  1510                           
  1511                           ; 2 bytes @ 0x9
  1512  0079                     	ds	1
  1513  007A                     ___xxtofl@arg:
  1514                           
  1515                           ; 4 bytes @ 0xA
  1516  007A                     	ds	1
  1517  007B                     ??_itoa:
  1518  007B                     ?_set_pwm_dc:	
  1519                           ; 1 bytes @ 0xB
  1520                           
  1521  007B                     set_pwm_dc@dc:	
  1522                           ; 1 bytes @ 0xB
  1523                           
  1524                           
  1525                           ; 2 bytes @ 0xB
  1526  007B                     	ds	1
  1527  007C                     ??_send_string:
  1528                           
  1529                           ; 1 bytes @ 0xC
  1530  007C                     	ds	1
  1531  007D                     ??_set_pwm_dc:
  1532                           
  1533                           ; 1 bytes @ 0xD
  1534  007D                     	ds	1
  1535                           
  1536                           	psect	cstackBANK0
  1537  0020                     __pcstackBANK0:
  1538  0020                     ??_dpsw_to_dc:
  1539  0020                     ?___flmul:	
  1540                           ; 1 bytes @ 0x0
  1541                           
  1542  0020                     itoa@original:	
  1543                           ; 4 bytes @ 0x0
  1544                           
  1545  0020                     ___flmul@b:	
  1546                           ; 2 bytes @ 0x0
  1547                           
  1548                           
  1549                           ; 4 bytes @ 0x0
  1550  0020                     	ds	2
  1551  0022                     itoa@c:
  1552                           
  1553                           ; 2 bytes @ 0x2
  1554  0022                     	ds	2
  1555  0024                     ?_send_string:
  1556  0024                     send_string@st_pt:	
  1557                           ; 1 bytes @ 0x4
  1558                           
  1559  0024                     dpsw_to_dc@d0:	
  1560                           ; 2 bytes @ 0x4
  1561                           
  1562  0024                     ___flmul@a:	
  1563                           ; 2 bytes @ 0x4
  1564                           
  1565                           
  1566                           ; 4 bytes @ 0x4
  1567  0024                     	ds	2
  1568  0026                     dpsw_to_dc@d1:
  1569                           
  1570                           ; 2 bytes @ 0x6
  1571  0026                     	ds	2
  1572  0028                     ??___flmul:
  1573  0028                     dpsw_to_dc@d2:	
  1574                           ; 1 bytes @ 0x8
  1575                           
  1576                           
  1577                           ; 2 bytes @ 0x8
  1578  0028                     	ds	2
  1579  002A                     dpsw_to_dc@d3:
  1580                           
  1581                           ; 2 bytes @ 0xA
  1582  002A                     	ds	2
  1583  002C                     dpsw_to_dc@rem:
  1584                           
  1585                           ; 2 bytes @ 0xC
  1586  002C                     	ds	1
  1587  002D                     ___flmul@sign:
  1588                           
  1589                           ; 1 bytes @ 0xD
  1590  002D                     	ds	1
  1591  002E                     dpsw_to_dc@num_base:
  1592  002E                     ___flmul@grs:	
  1593                           ; 2 bytes @ 0xE
  1594                           
  1595                           
  1596                           ; 4 bytes @ 0xE
  1597  002E                     	ds	2
  1598  0030                     dpsw_to_dc@decimal_num:
  1599                           
  1600                           ; 2 bytes @ 0x10
  1601  0030                     	ds	2
  1602  0032                     ___flmul@aexp:
  1603  0032                     dpsw_to_dc@binary_d:	
  1604                           ; 1 bytes @ 0x12
  1605                           
  1606                           
  1607                           ; 2 bytes @ 0x12
  1608  0032                     	ds	1
  1609  0033                     ___flmul@bexp:
  1610                           
  1611                           ; 1 bytes @ 0x13
  1612  0033                     	ds	1
  1613  0034                     ___flmul@prod:
  1614                           
  1615                           ; 4 bytes @ 0x14
  1616  0034                     	ds	4
  1617  0038                     ___flmul@temp:
  1618                           
  1619                           ; 2 bytes @ 0x18
  1620  0038                     	ds	2
  1621  003A                     ?___fltol:
  1622  003A                     ___fltol@f1:	
  1623                           ; 4 bytes @ 0x1A
  1624                           
  1625                           
  1626                           ; 4 bytes @ 0x1A
  1627  003A                     	ds	4
  1628  003E                     ??___fltol:
  1629                           
  1630                           ; 1 bytes @ 0x1E
  1631  003E                     	ds	5
  1632  0043                     ___fltol@sign1:
  1633                           
  1634                           ; 1 bytes @ 0x23
  1635  0043                     	ds	1
  1636  0044                     ___fltol@exp1:
  1637                           
  1638                           ; 1 bytes @ 0x24
  1639  0044                     	ds	1
  1640  0045                     ??_main:
  1641                           
  1642                           ; 1 bytes @ 0x25
  1643  0045                     	ds	2
  1644  0047                     main@dc:
  1645                           
  1646                           ; 2 bytes @ 0x27
  1647  0047                     	ds	2
  1648                           
  1649                           	psect	maintext
  1650  0487                     __pmaintext:	
  1651 ;;
  1652 ;;Main: autosize = 0, tempsize = 2, incstack = 0, save=0
  1653 ;;
  1654 ;; *************** function _main *****************
  1655 ;; Defined at:
  1656 ;;		line 302 in file "C:/Users/rocke/Desktop/PIC16-PTS/main.c"
  1657 ;; Parameters:    Size  Location     Type
  1658 ;;		None
  1659 ;; Auto vars:     Size  Location     Type
  1660 ;;  dc              2   39[BANK0 ] int 
  1661 ;; Return value:  Size  Location     Type
  1662 ;;                  1    wreg      void 
  1663 ;; Registers used:
  1664 ;;		wreg, fsr0l, fsr0h, fsr1l, fsr1h, status,2, status,0, pclath, cstack
  1665 ;; Tracked objects:
  1666 ;;		On entry : B3F/0
  1667 ;;		On exit  : 0/0
  1668 ;;		Unchanged: 0/0
  1669 ;; Data sizes:     COMMON   BANK0   BANK1   BANK2   BANK3   BANK4   BANK5   BANK6   BANK7   BANK8   BANK9  BANK10  BANK1
      +1  BANK12  BANK13  BANK14  BANK15  BANK16  BANK17  BANK18  BANK19  BANK20  BANK21  BANK22  BANK23  BANK24  BANK25  BANK2
      +6  BANK27  BANK28  BANK29  BANK30  BANK31  BANK32  BANK33  BANK34  BANK35  BANK36  BANK37  BANK38  BANK39  BANK40  BANK4
      +1  BANK42  BANK43  BANK44  BANK45  BANK46  BANK47  BANK48  BANK49  BANK50
  1670 ;;      Params:         0       0       0       0       0       0       0       0       0       0       0       0       
      +0       0       0       0       0       0       0       0       0       0       0       0       0       0       0       
      +0       0       0       0       0       0       0       0       0       0       0       0       0       0       0       
      +0       0       0       0       0       0       0       0       0       0
  1671 ;;      Locals:         0       2       0       0       0       0       0       0       0       0       0       0       
      +0       0       0       0       0       0       0       0       0       0       0       0       0       0       0       
      +0       0       0       0       0       0       0       0       0       0       0       0       0       0       0       
      +0       0       0       0       0       0       0       0       0       0
  1672 ;;      Temps:          0       2       0       0       0       0       0       0       0       0       0       0       
      +0       0       0       0       0       0       0       0       0       0       0       0       0       0       0       
      +0       0       0       0       0       0       0       0       0       0       0       0       0       0       0       
      +0       0       0       0       0       0       0       0       0       0
  1673 ;;      Totals:         0       4       0       0       0       0       0       0       0       0       0       0       
      +0       0       0       0       0       0       0       0       0       0       0       0       0       0       0       
      +0       0       0       0       0       0       0       0       0       0       0       0       0       0       0       
      +0       0       0       0       0       0       0       0       0       0
  1674 ;;Total ram usage:        4 bytes
  1675 ;; Hardware stack levels required when called: 2
  1676 ;; This function calls:
  1677 ;;		___flmul
  1678 ;;		___fltol
  1679 ;;		___xxtofl
  1680 ;;		_calcAngle
  1681 ;;		_cfg_eusart
  1682 ;;		_cfg_pwm
  1683 ;;		_dpsw_to_dc
  1684 ;;		_itoa
  1685 ;;		_ranging_sys_init
  1686 ;;		_send_string
  1687 ;;		_set_pwm_dc
  1688 ;; This function is called by:
  1689 ;;		Startup code after reset
  1690 ;; This function uses a non-reentrant model
  1691 ;;
  1692                           
  1693                           
  1694                           ;psect for function _main
  1695  0487                     _main:
  1696  0487                     l1807:	
  1697                           ;incstack = 0
  1698                           ; Regs used in _main: [wreg-fsr1h+status,2+status,0+pclath+cstack]
  1699                           
  1700                           
  1701                           ;C:/Users/rocke/Desktop/PIC16-PTS/main.c: 306:     cfg_eusart();
  1702  0487  3180  20C8  3184   	fcall	_cfg_eusart
  1703                           
  1704                           ;C:/Users/rocke/Desktop/PIC16-PTS/main.c: 307:     cfg_pwm();
  1705  048A  3181  214C  3184   	fcall	_cfg_pwm
  1706                           
  1707                           ;C:/Users/rocke/Desktop/PIC16-PTS/main.c: 308:     ranging_sys_init();
  1708  048D  3180  20D9  3184   	fcall	_ranging_sys_init
  1709  0490                     l1809:
  1710                           
  1711                           ;C:/Users/rocke/Desktop/PIC16-PTS/main.c: 443:     _delay((unsigned long)((1000)*(200000
      +                          0/4000.0)));
  1712  0490  3003               	movlw	3
  1713  0491  0140               	movlb	0	; select bank0
  1714  0492  00C6               	movwf	??_main+1
  1715  0493  308A               	movlw	138
  1716  0494  00C5               	movwf	??_main
  1717  0495  3055               	movlw	85
  1718  0496                     u1997:
  1719  0496  0B89               	decfsz	9,f
  1720  0497  2C96               	goto	u1997
  1721  0498  0BC5               	decfsz	??_main,f
  1722  0499  2C96               	goto	u1997
  1723  049A  0BC6               	decfsz	??_main+1,f
  1724  049B  2C96               	goto	u1997
  1725  049C  3200               	nop2
  1726  049D                     l1811:
  1727                           
  1728                           ;C:/Users/rocke/Desktop/PIC16-PTS/main.c: 444:     send_string("[*]Serial Connection suc
      +                          cessful\r\n");
  1729  049D  3000               	movlw	low (STR_1| (0+32768))
  1730  049E  0140               	movlb	0	; select bank0
  1731  049F  00A4               	movwf	send_string@st_pt
  1732  04A0  3088               	movlw	high (STR_1| (0+32768))
  1733  04A1  00A5               	movwf	send_string@st_pt+1
  1734  04A2  3180  20F1  3184   	fcall	_send_string
  1735  04A5                     l1813:
  1736  04A5                     l1815:
  1737                           
  1738                           ;C:/Users/rocke/Desktop/PIC16-PTS/main.c: 450:     {;C:/Users/rocke/Desktop/PIC16-PTS/ma
      +                          in.c: 451:         set_pwm_dc(dpsw_to_dc());
  1739  04A5  3183  2340  3184   	fcall	_dpsw_to_dc
  1740  04A8  087A               	movf	?_dpsw_to_dc+1,w
  1741  04A9  00FC               	movwf	set_pwm_dc@dc+1
  1742  04AA  0879               	movf	?_dpsw_to_dc,w
  1743  04AB  00FB               	movwf	set_pwm_dc@dc
  1744  04AC  3181  2170  3184   	fcall	_set_pwm_dc
  1745  04AF                     l1817:
  1746                           
  1747                           ;C:/Users/rocke/Desktop/PIC16-PTS/main.c: 452:         TMR0H = 0;
  1748  04AF  0140               	movlb	0	; select bank0
  1749  04B0  019D               	clrf	29	;volatile
  1750  04B1                     l1819:
  1751                           
  1752                           ;C:/Users/rocke/Desktop/PIC16-PTS/main.c: 453:         TMR0L = 0;
  1753  04B1  019C               	clrf	28	;volatile
  1754  04B2                     l1821:
  1755                           
  1756                           ;C:/Users/rocke/Desktop/PIC16-PTS/main.c: 454:         T0CON1bits.T0CKPS = 0b0001;
  1757  04B2  081F               	movf	31,w	;volatile
  1758  04B3  39F0               	andlw	-16
  1759  04B4  3801               	iorlw	1
  1760  04B5  009F               	movwf	31	;volatile
  1761  04B6                     l1823:
  1762                           
  1763                           ;C:/Users/rocke/Desktop/PIC16-PTS/main.c: 456:         PORTBbits.RB3 = 1;
  1764  04B6  158D               	bsf	13,3	;volatile
  1765  04B7                     l1825:
  1766                           
  1767                           ;C:/Users/rocke/Desktop/PIC16-PTS/main.c: 457:         _delay((unsigned long)((10)*(2000
      +                          000/4000000.0)));
  1768  04B7  3200               	nop2	;2 cycle nop
  1769  04B8  3200               	nop2	;2 cycle nop
  1770  04B9  0000               	nop
  1771  04BA                     l1827:
  1772                           
  1773                           ;C:/Users/rocke/Desktop/PIC16-PTS/main.c: 458:         PORTBbits.RB3 = 0;
  1774  04BA  0140               	movlb	0	; select bank0
  1775  04BB  118D               	bcf	13,3	;volatile
  1776  04BC                     l157:	
  1777                           ;C:/Users/rocke/Desktop/PIC16-PTS/main.c: 460:         while(!PORTBbits.RB4);
  1778                           
  1779  04BC  1E0D               	btfss	13,4	;volatile
  1780  04BD  2CBF               	goto	u1951
  1781  04BE  2CC0               	goto	u1950
  1782  04BF                     u1951:
  1783  04BF  2CBC               	goto	l157
  1784  04C0                     u1950:
  1785  04C0                     l159:
  1786                           
  1787                           ;C:/Users/rocke/Desktop/PIC16-PTS/main.c: 461:         T0CON0bits.T0EN = 1;
  1788  04C0  179E               	bsf	30,7	;volatile
  1789  04C1                     l160:	
  1790                           ;C:/Users/rocke/Desktop/PIC16-PTS/main.c: 462:         while(PORTBbits.RB4);
  1791                           
  1792  04C1  1A0D               	btfsc	13,4	;volatile
  1793  04C2  2CC4               	goto	u1961
  1794  04C3  2CC5               	goto	u1960
  1795  04C4                     u1961:
  1796  04C4  2CC1               	goto	l160
  1797  04C5                     u1960:
  1798  04C5                     l162:
  1799                           
  1800                           ;C:/Users/rocke/Desktop/PIC16-PTS/main.c: 463:         T0CON0bits.T0EN = 0;
  1801  04C5  139E               	bcf	30,7	;volatile
  1802  04C6                     l1829:
  1803                           
  1804                           ;C:/Users/rocke/Desktop/PIC16-PTS/main.c: 465:         a = (TMR0L | (TMR0H<<8));
  1805  04C6  081D               	movf	29,w	;volatile
  1806  04C7  00CA               	movwf	_a+1
  1807  04C8  081C               	movf	28,w	;volatile
  1808  04C9  00C9               	movwf	_a
  1809  04CA                     l1831:
  1810                           
  1811                           ;C:/Users/rocke/Desktop/PIC16-PTS/main.c: 466:         a = a*0.068;
  1812  04CA  0849               	movf	_a,w
  1813  04CB  00F0               	movwf	___xxtofl@val
  1814  04CC  084A               	movf	_a+1,w
  1815  04CD  00F1               	movwf	___xxtofl@val+1
  1816  04CE  0D89               	rlf	9,f
  1817  04CF  3B89               	subwfb	9,f
  1818  04D0  0989               	comf	9,f
  1819  04D1  00F2               	movwf	___xxtofl@val+2
  1820  04D2  00F3               	movwf	___xxtofl@val+3
  1821  04D3  3001               	movlw	1
  1822  04D4  3183  23DB  3184   	fcall	___xxtofl
  1823  04D7  0873               	movf	?___xxtofl+3,w
  1824  04D8  0140               	movlb	0	; select bank0
  1825  04D9  00A7               	movwf	___flmul@a+3
  1826  04DA  0872               	movf	?___xxtofl+2,w
  1827  04DB  00A6               	movwf	___flmul@a+2
  1828  04DC  0871               	movf	?___xxtofl+1,w
  1829  04DD  00A5               	movwf	___flmul@a+1
  1830  04DE  0870               	movf	?___xxtofl,w
  1831  04DF  00A4               	movwf	___flmul@a
  1832  04E0  303D               	movlw	61
  1833  04E1  00A3               	movwf	___flmul@b+3
  1834  04E2  308B               	movlw	139
  1835  04E3  00A2               	movwf	___flmul@b+2
  1836  04E4  3043               	movlw	67
  1837  04E5  00A1               	movwf	___flmul@b+1
  1838  04E6  3096               	movlw	150
  1839  04E7  00A0               	movwf	___flmul@b
  1840  04E8  3185  259E  3184   	fcall	___flmul
  1841  04EB  0140               	movlb	0	; select bank0
  1842  04EC  0823               	movf	?___flmul+3,w
  1843  04ED  00BD               	movwf	___fltol@f1+3
  1844  04EE  0822               	movf	?___flmul+2,w
  1845  04EF  00BC               	movwf	___fltol@f1+2
  1846  04F0  0821               	movf	?___flmul+1,w
  1847  04F1  00BB               	movwf	___fltol@f1+1
  1848  04F2  0820               	movf	?___flmul,w
  1849  04F3  00BA               	movwf	___fltol@f1
  1850  04F4  3182  22CB  3184   	fcall	___fltol
  1851  04F7  0140               	movlb	0	; select bank0
  1852  04F8  083B               	movf	?___fltol+1,w
  1853  04F9  00CA               	movwf	_a+1
  1854  04FA  083A               	movf	?___fltol,w
  1855  04FB  00C9               	movwf	_a
  1856  04FC                     l1833:
  1857                           
  1858                           ;C:/Users/rocke/Desktop/PIC16-PTS/main.c: 467:         a = a + 1;
  1859  04FC  0849               	movf	_a,w
  1860  04FD  3E01               	addlw	1
  1861  04FE  00C9               	movwf	_a
  1862  04FF  3000               	movlw	0
  1863  0500  3D4A               	addwfc	_a+1,w
  1864  0501  00CA               	movwf	_a+1
  1865  0502                     l1835:
  1866                           
  1867                           ;C:/Users/rocke/Desktop/PIC16-PTS/main.c: 469:         dc = CCPR2H;
  1868  0502  0146               	movlb	6	; select bank6
  1869  0503  0811               	movf	17,w	;volatile
  1870  0504  0140               	movlb	0	; select bank0
  1871  0505  00C5               	movwf	??_main
  1872  0506  01C6               	clrf	??_main+1
  1873  0507  0845               	movf	??_main,w
  1874  0508  00C7               	movwf	main@dc
  1875  0509  0846               	movf	??_main+1,w
  1876  050A  00C8               	movwf	main@dc+1
  1877  050B                     l1837:
  1878                           
  1879                           ;C:/Users/rocke/Desktop/PIC16-PTS/main.c: 471:         if(a>=2 && a<=400)
  1880  050B  084A               	movf	_a+1,w
  1881  050C  3A80               	xorlw	128
  1882  050D  00C5               	movwf	??_main
  1883  050E  3080               	movlw	128
  1884  050F  0245               	subwf	??_main,w
  1885  0510  1D03               	skipz
  1886  0511  2D14               	goto	u1975
  1887  0512  3002               	movlw	2
  1888  0513  0249               	subwf	_a,w
  1889  0514                     u1975:
  1890  0514  1C03               	skipc
  1891  0515  2D17               	goto	u1971
  1892  0516  2D18               	goto	u1970
  1893  0517                     u1971:
  1894  0517  2D86               	goto	l1855
  1895  0518                     u1970:
  1896  0518                     l1839:
  1897  0518  0140               	movlb	0	; select bank0
  1898  0519  084A               	movf	_a+1,w
  1899  051A  3A80               	xorlw	128
  1900  051B  00C5               	movwf	??_main
  1901  051C  3081               	movlw	129
  1902  051D  0245               	subwf	??_main,w
  1903  051E  1D03               	skipz
  1904  051F  2D22               	goto	u1985
  1905  0520  3091               	movlw	145
  1906  0521  0249               	subwf	_a,w
  1907  0522                     u1985:
  1908  0522  1803               	skipnc
  1909  0523  2D25               	goto	u1981
  1910  0524  2D26               	goto	u1980
  1911  0525                     u1981:
  1912  0525  2D86               	goto	l1855
  1913  0526                     u1980:
  1914  0526                     l1841:
  1915                           
  1916                           ;C:/Users/rocke/Desktop/PIC16-PTS/main.c: 472:         {;C:/Users/rocke/Desktop/PIC16-PT
      +                          S/main.c: 474:             send_string("Distance = ");
  1917  0526  3044               	movlw	low (STR_2| (0+32768))
  1918  0527  0140               	movlb	0	; select bank0
  1919  0528  00A4               	movwf	send_string@st_pt
  1920  0529  3088               	movlw	high (STR_2| (0+32768))
  1921  052A  00A5               	movwf	send_string@st_pt+1
  1922  052B  3180  20F1  3184   	fcall	_send_string
  1923  052E                     l1843:
  1924                           
  1925                           ;C:/Users/rocke/Desktop/PIC16-PTS/main.c: 475:             send_string(itoa(a));
  1926  052E  0140               	movlb	0	; select bank0
  1927  052F  084A               	movf	_a+1,w
  1928  0530  00FA               	movwf	itoa@value+1
  1929  0531  0849               	movf	_a,w
  1930  0532  00F9               	movwf	itoa@value
  1931  0533  3182  2217  3184   	fcall	_itoa
  1932  0536  0140               	movlb	0	; select bank0
  1933  0537  00A4               	movwf	send_string@st_pt
  1934  0538  3000               	movlw	0
  1935  0539  00A5               	movwf	send_string@st_pt+1
  1936  053A  3180  20F1  3184   	fcall	_send_string
  1937  053D                     l1845:
  1938                           
  1939                           ;C:/Users/rocke/Desktop/PIC16-PTS/main.c: 476:             send_string(" cm");
  1940  053D  305F               	movlw	low (STR_3| (0+32768))
  1941  053E  0140               	movlb	0	; select bank0
  1942  053F  00A4               	movwf	send_string@st_pt
  1943  0540  3088               	movlw	high (STR_3| (0+32768))
  1944  0541  00A5               	movwf	send_string@st_pt+1
  1945  0542  3180  20F1  3184   	fcall	_send_string
  1946  0545                     l1847:
  1947                           
  1948                           ;C:/Users/rocke/Desktop/PIC16-PTS/main.c: 478:             send_string("\tAngle = ");
  1949  0545  3050               	movlw	low (STR_4| (0+32768))
  1950  0546  0140               	movlb	0	; select bank0
  1951  0547  00A4               	movwf	send_string@st_pt
  1952  0548  3088               	movlw	high (STR_4| (0+32768))
  1953  0549  00A5               	movwf	send_string@st_pt+1
  1954  054A  3180  20F1  3184   	fcall	_send_string
  1955  054D                     l1849:
  1956                           
  1957                           ;C:/Users/rocke/Desktop/PIC16-PTS/main.c: 479:             send_string(itoa(calcAngle())
      +                          );
  1958  054D  3181  2195  3184   	fcall	_calcAngle
  1959  0550  0871               	movf	?_calcAngle+1,w
  1960  0551  00FA               	movwf	itoa@value+1
  1961  0552  0870               	movf	?_calcAngle,w
  1962  0553  00F9               	movwf	itoa@value
  1963  0554  3182  2217  3184   	fcall	_itoa
  1964  0557  0140               	movlb	0	; select bank0
  1965  0558  00A4               	movwf	send_string@st_pt
  1966  0559  3000               	movlw	0
  1967  055A  00A5               	movwf	send_string@st_pt+1
  1968  055B  3180  20F1  3184   	fcall	_send_string
  1969                           
  1970                           ;C:/Users/rocke/Desktop/PIC16-PTS/main.c: 480:             send_string(" deg");
  1971  055E  305A               	movlw	low (STR_5| (0+32768))
  1972  055F  0140               	movlb	0	; select bank0
  1973  0560  00A4               	movwf	send_string@st_pt
  1974  0561  3088               	movlw	high (STR_5| (0+32768))
  1975  0562  00A5               	movwf	send_string@st_pt+1
  1976  0563  3180  20F1  3184   	fcall	_send_string
  1977                           
  1978                           ;C:/Users/rocke/Desktop/PIC16-PTS/main.c: 483:             send_string("\tPWM Duty Cycle
      +                           = ");
  1979  0566  3022               	movlw	low (STR_6| (0+32768))
  1980  0567  0140               	movlb	0	; select bank0
  1981  0568  00A4               	movwf	send_string@st_pt
  1982  0569  3088               	movlw	high (STR_6| (0+32768))
  1983  056A  00A5               	movwf	send_string@st_pt+1
  1984  056B  3180  20F1  3184   	fcall	_send_string
  1985  056E                     l1851:
  1986                           
  1987                           ;C:/Users/rocke/Desktop/PIC16-PTS/main.c: 484:             send_string(itoa(dc));
  1988  056E  0140               	movlb	0	; select bank0
  1989  056F  0848               	movf	main@dc+1,w
  1990  0570  00FA               	movwf	itoa@value+1
  1991  0571  0847               	movf	main@dc,w
  1992  0572  00F9               	movwf	itoa@value
  1993  0573  3182  2217  3184   	fcall	_itoa
  1994  0576  0140               	movlb	0	; select bank0
  1995  0577  00A4               	movwf	send_string@st_pt
  1996  0578  3000               	movlw	0
  1997  0579  00A5               	movwf	send_string@st_pt+1
  1998  057A  3180  20F1  3184   	fcall	_send_string
  1999  057D                     l1853:
  2000                           
  2001                           ;C:/Users/rocke/Desktop/PIC16-PTS/main.c: 485:             send_string("\r\n");
  2002  057D  3041               	movlw	low ((STR_8+12)| (0+32768))
  2003  057E  0140               	movlb	0	; select bank0
  2004  057F  00A4               	movwf	send_string@st_pt
  2005  0580  3088               	movlw	high ((STR_8+12)| (0+32768))
  2006  0581  00A5               	movwf	send_string@st_pt+1
  2007  0582  3180  20F1  3184   	fcall	_send_string
  2008                           
  2009                           ;C:/Users/rocke/Desktop/PIC16-PTS/main.c: 486:         }
  2010  0585  2D8E               	goto	l1857
  2011  0586                     l1855:
  2012                           
  2013                           ;C:/Users/rocke/Desktop/PIC16-PTS/main.c: 488:         {;C:/Users/rocke/Desktop/PIC16-PT
      +                          S/main.c: 489:           send_string("Out of Range\r\n");
  2014  0586  3035               	movlw	low (STR_8| (0+32768))
  2015  0587  0140               	movlb	0	; select bank0
  2016  0588  00A4               	movwf	send_string@st_pt
  2017  0589  3088               	movlw	high (STR_8| (0+32768))
  2018  058A  00A5               	movwf	send_string@st_pt+1
  2019  058B  3180  20F1  3184   	fcall	_send_string
  2020  058E                     l1857:
  2021                           
  2022                           ;C:/Users/rocke/Desktop/PIC16-PTS/main.c: 491:         _delay((unsigned long)((400)*(200
      +                          0000/4000.0)));
  2023  058E  3002               	movlw	2
  2024  058F  0140               	movlb	0	; select bank0
  2025  0590  00C6               	movwf	??_main+1
  2026  0591  3004               	movlw	4
  2027  0592  00C5               	movwf	??_main
  2028  0593  30BA               	movlw	186
  2029  0594                     u2007:
  2030  0594  0B89               	decfsz	9,f
  2031  0595  2D94               	goto	u2007
  2032  0596  0BC5               	decfsz	??_main,f
  2033  0597  2D94               	goto	u2007
  2034  0598  0BC6               	decfsz	??_main+1,f
  2035  0599  2D94               	goto	u2007
  2036  059A  0000               	nop
  2037  059B  2CA5               	goto	l1815
  2038  059C  3180  2802         	ljmp	start
  2039  059E                     __end_of_main:
  2040                           
  2041                           	psect	text1
  2042  0170                     __ptext1:	
  2043 ;; *************** function _set_pwm_dc *****************
  2044 ;; Defined at:
  2045 ;;		line 247 in file "C:/Users/rocke/Desktop/PIC16-PTS/main.c"
  2046 ;; Parameters:    Size  Location     Type
  2047 ;;  dc              2   11[COMMON] int 
  2048 ;; Auto vars:     Size  Location     Type
  2049 ;;		None
  2050 ;; Return value:  Size  Location     Type
  2051 ;;                  1    wreg      void 
  2052 ;; Registers used:
  2053 ;;		wreg, status,2
  2054 ;; Tracked objects:
  2055 ;;		On entry : 0/0
  2056 ;;		On exit  : 0/0
  2057 ;;		Unchanged: 0/0
  2058 ;; Data sizes:     COMMON   BANK0   BANK1   BANK2   BANK3   BANK4   BANK5   BANK6   BANK7   BANK8   BANK9  BANK10  BANK1
      +1  BANK12  BANK13  BANK14  BANK15  BANK16  BANK17  BANK18  BANK19  BANK20  BANK21  BANK22  BANK23  BANK24  BANK25  BANK2
      +6  BANK27  BANK28  BANK29  BANK30  BANK31  BANK32  BANK33  BANK34  BANK35  BANK36  BANK37  BANK38  BANK39  BANK40  BANK4
      +1  BANK42  BANK43  BANK44  BANK45  BANK46  BANK47  BANK48  BANK49  BANK50
  2059 ;;      Params:         2       0       0       0       0       0       0       0       0       0       0       0       
      +0       0       0       0       0       0       0       0       0       0       0       0       0       0       0       
      +0       0       0       0       0       0       0       0       0       0       0       0       0       0       0       
      +0       0       0       0       0       0       0       0       0       0
  2060 ;;      Locals:         0       0       0       0       0       0       0       0       0       0       0       0       
      +0       0       0       0       0       0       0       0       0       0       0       0       0       0       0       
      +0       0       0       0       0       0       0       0       0       0       0       0       0       0       0       
      +0       0       0       0       0       0       0       0       0       0
  2061 ;;      Temps:          1       0       0       0       0       0       0       0       0       0       0       0       
      +0       0       0       0       0       0       0       0       0       0       0       0       0       0       0       
      +0       0       0       0       0       0       0       0       0       0       0       0       0       0       0       
      +0       0       0       0       0       0       0       0       0       0
  2062 ;;      Totals:         3       0       0       0       0       0       0       0       0       0       0       0       
      +0       0       0       0       0       0       0       0       0       0       0       0       0       0       0       
      +0       0       0       0       0       0       0       0       0       0       0       0       0       0       0       
      +0       0       0       0       0       0       0       0       0       0
  2063 ;;Total ram usage:        3 bytes
  2064 ;; Hardware stack levels used: 1
  2065 ;; This function calls:
  2066 ;;		Nothing
  2067 ;; This function is called by:
  2068 ;;		_main
  2069 ;; This function uses a non-reentrant model
  2070 ;;
  2071                           
  2072                           
  2073                           ;psect for function _set_pwm_dc
  2074  0170                     _set_pwm_dc:
  2075  0170                     l1529:	
  2076                           ;incstack = 0
  2077                           ; Regs used in _set_pwm_dc: [wreg+status,2]
  2078                           
  2079                           
  2080                           ;C:/Users/rocke/Desktop/PIC16-PTS/main.c: 247: void set_pwm_dc(int dc);C:/Users/rocke/De
      +                          sktop/PIC16-PTS/main.c: 248: {;C:/Users/rocke/Desktop/PIC16-PTS/main.c: 249:         if(
      +                          dc>20)
  2081  0170  087C               	movf	set_pwm_dc@dc+1,w
  2082  0171  3A80               	xorlw	128
  2083  0172  00FD               	movwf	??_set_pwm_dc
  2084  0173  3080               	movlw	128
  2085  0174  027D               	subwf	??_set_pwm_dc,w
  2086  0175  1D03               	skipz
  2087  0176  2979               	goto	u1375
  2088  0177  3015               	movlw	21
  2089  0178  027B               	subwf	set_pwm_dc@dc,w
  2090  0179                     u1375:
  2091  0179  1C03               	skipc
  2092  017A  297C               	goto	u1371
  2093  017B  297D               	goto	u1370
  2094  017C                     u1371:
  2095  017C  2981               	goto	l1533
  2096  017D                     u1370:
  2097  017D                     l1531:
  2098                           
  2099                           ;C:/Users/rocke/Desktop/PIC16-PTS/main.c: 250:         {;C:/Users/rocke/Desktop/PIC16-PT
      +                          S/main.c: 251:             CCPR2H = 20;
  2100  017D  3014               	movlw	20
  2101  017E  0146               	movlb	6	; select bank6
  2102  017F  0091               	movwf	17	;volatile
  2103                           
  2104                           ;C:/Users/rocke/Desktop/PIC16-PTS/main.c: 253:         }
  2105  0180  2994               	goto	l136
  2106  0181                     l1533:
  2107  0181  087C               	movf	set_pwm_dc@dc+1,w
  2108  0182  3A80               	xorlw	128
  2109  0183  00FD               	movwf	??_set_pwm_dc
  2110  0184  3080               	movlw	128
  2111  0185  027D               	subwf	??_set_pwm_dc,w
  2112  0186  1D03               	skipz
  2113  0187  298A               	goto	u1385
  2114  0188  3001               	movlw	1
  2115  0189  027B               	subwf	set_pwm_dc@dc,w
  2116  018A                     u1385:
  2117  018A  1803               	skipnc
  2118  018B  298D               	goto	u1381
  2119  018C  298E               	goto	u1380
  2120  018D                     u1381:
  2121  018D  2991               	goto	l1537
  2122  018E                     u1380:
  2123  018E                     l1535:
  2124                           
  2125                           ;C:/Users/rocke/Desktop/PIC16-PTS/main.c: 255:         {;C:/Users/rocke/Desktop/PIC16-PT
      +                          S/main.c: 256:             CCPR2H = 0;
  2126  018E  0146               	movlb	6	; select bank6
  2127  018F  0191               	clrf	17	;volatile
  2128                           
  2129                           ;C:/Users/rocke/Desktop/PIC16-PTS/main.c: 258:         }
  2130  0190  2994               	goto	l136
  2131  0191                     l1537:
  2132                           
  2133                           ;C:/Users/rocke/Desktop/PIC16-PTS/main.c: 260:             CCPR2H = dc;
  2134  0191  087B               	movf	set_pwm_dc@dc,w
  2135  0192  0146               	movlb	6	; select bank6
  2136  0193  0091               	movwf	17	;volatile
  2137  0194                     l136:
  2138  0194  0008               	return
  2139  0195                     __end_of_set_pwm_dc:
  2140                           
  2141                           	psect	text2
  2142  00F1                     __ptext2:	
  2143 ;; *************** function _send_string *****************
  2144 ;; Defined at:
  2145 ;;		line 120 in file "C:/Users/rocke/Desktop/PIC16-PTS/main.c"
  2146 ;; Parameters:    Size  Location     Type
  2147 ;;  st_pt           2    4[BANK0 ] PTR unsigned char 
  2148 ;;		 -> STR_8(15), STR_7(3), STR_6(19), STR_5(5), 
  2149 ;;		 -> STR_4(10), STR_3(4), STR_2(12), STR_1(34), 
  2150 ;;		 -> itoa@buffer(12), 
  2151 ;; Auto vars:     Size  Location     Type
  2152 ;;		None
  2153 ;; Return value:  Size  Location     Type
  2154 ;;                  1    wreg      void 
  2155 ;; Registers used:
  2156 ;;		wreg, fsr0l, fsr0h, status,2, status,0, pclath, cstack
  2157 ;; Tracked objects:
  2158 ;;		On entry : 0/0
  2159 ;;		On exit  : 0/0
  2160 ;;		Unchanged: 0/0
  2161 ;; Data sizes:     COMMON   BANK0   BANK1   BANK2   BANK3   BANK4   BANK5   BANK6   BANK7   BANK8   BANK9  BANK10  BANK1
      +1  BANK12  BANK13  BANK14  BANK15  BANK16  BANK17  BANK18  BANK19  BANK20  BANK21  BANK22  BANK23  BANK24  BANK25  BANK2
      +6  BANK27  BANK28  BANK29  BANK30  BANK31  BANK32  BANK33  BANK34  BANK35  BANK36  BANK37  BANK38  BANK39  BANK40  BANK4
      +1  BANK42  BANK43  BANK44  BANK45  BANK46  BANK47  BANK48  BANK49  BANK50
  2162 ;;      Params:         0       2       0       0       0       0       0       0       0       0       0       0       
      +0       0       0       0       0       0       0       0       0       0       0       0       0       0       0       
      +0       0       0       0       0       0       0       0       0       0       0       0       0       0       0       
      +0       0       0       0       0       0       0       0       0       0
  2163 ;;      Locals:         0       0       0       0       0       0       0       0       0       0       0       0       
      +0       0       0       0       0       0       0       0       0       0       0       0       0       0       0       
      +0       0       0       0       0       0       0       0       0       0       0       0       0       0       0       
      +0       0       0       0       0       0       0       0       0       0
  2164 ;;      Temps:          1       0       0       0       0       0       0       0       0       0       0       0       
      +0       0       0       0       0       0       0       0       0       0       0       0       0       0       0       
      +0       0       0       0       0       0       0       0       0       0       0       0       0       0       0       
      +0       0       0       0       0       0       0       0       0       0
  2165 ;;      Totals:         1       2       0       0       0       0       0       0       0       0       0       0       
      +0       0       0       0       0       0       0       0       0       0       0       0       0       0       0       
      +0       0       0       0       0       0       0       0       0       0       0       0       0       0       0       
      +0       0       0       0       0       0       0       0       0       0
  2166 ;;Total ram usage:        3 bytes
  2167 ;; Hardware stack levels used: 1
  2168 ;; Hardware stack levels required when called: 1
  2169 ;; This function calls:
  2170 ;;		_send_char
  2171 ;; This function is called by:
  2172 ;;		_main
  2173 ;; This function uses a non-reentrant model
  2174 ;;
  2175                           
  2176                           
  2177                           ;psect for function _send_string
  2178  00F1                     _send_string:
  2179  00F1                     l1461:	
  2180                           ;incstack = 0
  2181                           ; Regs used in _send_string: [wreg-fsr0h+status,2+status,0+pclath+cstack]
  2182                           
  2183                           
  2184                           ;C:/Users/rocke/Desktop/PIC16-PTS/main.c: 120: void send_string(char* st_pt);C:/Users/ro
      +                          cke/Desktop/PIC16-PTS/main.c: 121: {;C:/Users/rocke/Desktop/PIC16-PTS/main.c: 122:     w
      +                          hile(*st_pt)
  2185  00F1  28FF               	goto	l1467
  2186  00F2                     l1463:
  2187                           
  2188                           ;C:/Users/rocke/Desktop/PIC16-PTS/main.c: 123:         send_char(*st_pt++);
  2189  00F2  0824               	movf	send_string@st_pt,w
  2190  00F3  0084               	movwf	4
  2191  00F4  0825               	movf	send_string@st_pt+1,w
  2192  00F5  0085               	movwf	5
  2193  00F6  0800               	movf	0,w	;code access
  2194  00F7  3180  20BE  3180   	fcall	_send_char
  2195  00FA                     l1465:
  2196  00FA  3001               	movlw	1
  2197  00FB  0140               	movlb	0	; select bank0
  2198  00FC  07A4               	addwf	send_string@st_pt,f
  2199  00FD  3000               	movlw	0
  2200  00FE  3DA5               	addwfc	send_string@st_pt+1,f
  2201  00FF                     l1467:
  2202                           
  2203                           ;C:/Users/rocke/Desktop/PIC16-PTS/main.c: 122:     while(*st_pt)
  2204  00FF  0140               	movlb	0	; select bank0
  2205  0100  0824               	movf	send_string@st_pt,w
  2206  0101  0084               	movwf	4
  2207  0102  0825               	movf	send_string@st_pt+1,w
  2208  0103  0085               	movwf	5
  2209  0104  0012               	moviw fsr0++
  2210  0105  1D03               	btfss	3,2
  2211  0106  2908               	goto	u1271
  2212  0107  2909               	goto	u1270
  2213  0108                     u1271:
  2214  0108  28F2               	goto	l1463
  2215  0109                     u1270:
  2216  0109                     l90:
  2217  0109  0008               	return
  2218  010A                     __end_of_send_string:
  2219                           
  2220                           	psect	text3
  2221  00BE                     __ptext3:	
  2222 ;; *************** function _send_char *****************
  2223 ;; Defined at:
  2224 ;;		line 115 in file "C:/Users/rocke/Desktop/PIC16-PTS/main.c"
  2225 ;; Parameters:    Size  Location     Type
  2226 ;;  word            1    wreg     unsigned char 
  2227 ;; Auto vars:     Size  Location     Type
  2228 ;;  word            1    0[COMMON] unsigned char 
  2229 ;; Return value:  Size  Location     Type
  2230 ;;                  1    wreg      void 
  2231 ;; Registers used:
  2232 ;;		wreg
  2233 ;; Tracked objects:
  2234 ;;		On entry : 0/0
  2235 ;;		On exit  : 0/0
  2236 ;;		Unchanged: 0/0
  2237 ;; Data sizes:     COMMON   BANK0   BANK1   BANK2   BANK3   BANK4   BANK5   BANK6   BANK7   BANK8   BANK9  BANK10  BANK1
      +1  BANK12  BANK13  BANK14  BANK15  BANK16  BANK17  BANK18  BANK19  BANK20  BANK21  BANK22  BANK23  BANK24  BANK25  BANK2
      +6  BANK27  BANK28  BANK29  BANK30  BANK31  BANK32  BANK33  BANK34  BANK35  BANK36  BANK37  BANK38  BANK39  BANK40  BANK4
      +1  BANK42  BANK43  BANK44  BANK45  BANK46  BANK47  BANK48  BANK49  BANK50
  2238 ;;      Params:         0       0       0       0       0       0       0       0       0       0       0       0       
      +0       0       0       0       0       0       0       0       0       0       0       0       0       0       0       
      +0       0       0       0       0       0       0       0       0       0       0       0       0       0       0       
      +0       0       0       0       0       0       0       0       0       0
  2239 ;;      Locals:         1       0       0       0       0       0       0       0       0       0       0       0       
      +0       0       0       0       0       0       0       0       0       0       0       0       0       0       0       
      +0       0       0       0       0       0       0       0       0       0       0       0       0       0       0       
      +0       0       0       0       0       0       0       0       0       0
  2240 ;;      Temps:          0       0       0       0       0       0       0       0       0       0       0       0       
      +0       0       0       0       0       0       0       0       0       0       0       0       0       0       0       
      +0       0       0       0       0       0       0       0       0       0       0       0       0       0       0       
      +0       0       0       0       0       0       0       0       0       0
  2241 ;;      Totals:         1       0       0       0       0       0       0       0       0       0       0       0       
      +0       0       0       0       0       0       0       0       0       0       0       0       0       0       0       
      +0       0       0       0       0       0       0       0       0       0       0       0       0       0       0       
      +0       0       0       0       0       0       0       0       0       0
  2242 ;;Total ram usage:        1 bytes
  2243 ;; Hardware stack levels used: 1
  2244 ;; This function calls:
  2245 ;;		Nothing
  2246 ;; This function is called by:
  2247 ;;		_send_string
  2248 ;; This function uses a non-reentrant model
  2249 ;;
  2250                           
  2251                           
  2252                           ;psect for function _send_char
  2253  00BE                     _send_char:
  2254                           
  2255                           ;incstack = 0
  2256                           ; Regs used in _send_char: [wreg]
  2257                           ;send_char@word stored from wreg
  2258  00BE  00F0               	movwf	send_char@word
  2259  00BF                     l1323:
  2260  00BF                     l81:	
  2261                           ;C:/Users/rocke/Desktop/PIC16-PTS/main.c: 116:     while(!TXIF);
  2262                           
  2263  00BF  014E               	movlb	14	; select bank14
  2264  00C0  1E0F               	btfss	15,4	;volatile
  2265  00C1  28C3               	goto	u1001
  2266  00C2  28C4               	goto	u1000
  2267  00C3                     u1001:
  2268  00C3  28BF               	goto	l81
  2269  00C4                     u1000:
  2270  00C4                     l1325:
  2271                           
  2272                           ;C:/Users/rocke/Desktop/PIC16-PTS/main.c: 117:     TXREG = word;
  2273  00C4  0870               	movf	send_char@word,w
  2274  00C5  0142               	movlb	2	; select bank2
  2275  00C6  009A               	movwf	26	;volatile
  2276  00C7                     l84:
  2277  00C7  0008               	return
  2278  00C8                     __end_of_send_char:
  2279                           
  2280                           	psect	text4
  2281  00D9                     __ptext4:	
  2282 ;; *************** function _ranging_sys_init *****************
  2283 ;; Defined at:
  2284 ;;		line 134 in file "C:/Users/rocke/Desktop/PIC16-PTS/main.c"
  2285 ;; Parameters:    Size  Location     Type
  2286 ;;		None
  2287 ;; Auto vars:     Size  Location     Type
  2288 ;;		None
  2289 ;; Return value:  Size  Location     Type
  2290 ;;                  1    wreg      void 
  2291 ;; Registers used:
  2292 ;;		wreg, status,2, status,0
  2293 ;; Tracked objects:
  2294 ;;		On entry : 0/0
  2295 ;;		On exit  : 0/0
  2296 ;;		Unchanged: 0/0
  2297 ;; Data sizes:     COMMON   BANK0   BANK1   BANK2   BANK3   BANK4   BANK5   BANK6   BANK7   BANK8   BANK9  BANK10  BANK1
      +1  BANK12  BANK13  BANK14  BANK15  BANK16  BANK17  BANK18  BANK19  BANK20  BANK21  BANK22  BANK23  BANK24  BANK25  BANK2
      +6  BANK27  BANK28  BANK29  BANK30  BANK31  BANK32  BANK33  BANK34  BANK35  BANK36  BANK37  BANK38  BANK39  BANK40  BANK4
      +1  BANK42  BANK43  BANK44  BANK45  BANK46  BANK47  BANK48  BANK49  BANK50
  2298 ;;      Params:         0       0       0       0       0       0       0       0       0       0       0       0       
      +0       0       0       0       0       0       0       0       0       0       0       0       0       0       0       
      +0       0       0       0       0       0       0       0       0       0       0       0       0       0       0       
      +0       0       0       0       0       0       0       0       0       0
  2299 ;;      Locals:         0       0       0       0       0       0       0       0       0       0       0       0       
      +0       0       0       0       0       0       0       0       0       0       0       0       0       0       0       
      +0       0       0       0       0       0       0       0       0       0       0       0       0       0       0       
      +0       0       0       0       0       0       0       0       0       0
  2300 ;;      Temps:          0       0       0       0       0       0       0       0       0       0       0       0       
      +0       0       0       0       0       0       0       0       0       0       0       0       0       0       0       
      +0       0       0       0       0       0       0       0       0       0       0       0       0       0       0       
      +0       0       0       0       0       0       0       0       0       0
  2301 ;;      Totals:         0       0       0       0       0       0       0       0       0       0       0       0       
      +0       0       0       0       0       0       0       0       0       0       0       0       0       0       0       
      +0       0       0       0       0       0       0       0       0       0       0       0       0       0       0       
      +0       0       0       0       0       0       0       0       0       0
  2302 ;;Total ram usage:        0 bytes
  2303 ;; Hardware stack levels used: 1
  2304 ;; This function calls:
  2305 ;;		Nothing
  2306 ;; This function is called by:
  2307 ;;		_main
  2308 ;; This function uses a non-reentrant model
  2309 ;;
  2310                           
  2311                           
  2312                           ;psect for function _ranging_sys_init
  2313  00D9                     _ranging_sys_init:
  2314  00D9                     l1469:	
  2315                           ;incstack = 0
  2316                           ; Regs used in _ranging_sys_init: [wreg+status,2+status,0]
  2317                           
  2318                           
  2319                           ;C:/Users/rocke/Desktop/PIC16-PTS/main.c: 137:     TRISBbits.TRISB4 = 1;
  2320  00D9  0140               	movlb	0	; select bank0
  2321  00DA  1612               	bsf	18,4	;volatile
  2322                           
  2323                           ;C:/Users/rocke/Desktop/PIC16-PTS/main.c: 138:     TRISBbits.TRISB3 = 0;
  2324  00DB  1192               	bcf	18,3	;volatile
  2325                           
  2326                           ;C:/Users/rocke/Desktop/PIC16-PTS/main.c: 139:     TRISBbits.TRISB2 = 0;
  2327  00DC  1112               	bcf	18,2	;volatile
  2328                           
  2329                           ;C:/Users/rocke/Desktop/PIC16-PTS/main.c: 140:     TRISBbits.TRISB1 = 1;
  2330  00DD  1492               	bsf	18,1	;volatile
  2331                           
  2332                           ;C:/Users/rocke/Desktop/PIC16-PTS/main.c: 141:     TRISBbits.TRISB0 = 1;
  2333  00DE  1412               	bsf	18,0	;volatile
  2334  00DF                     l1471:
  2335                           
  2336                           ;C:/Users/rocke/Desktop/PIC16-PTS/main.c: 142:     ANSELB = 0x00;
  2337  00DF  017E               	movlb	62	; select bank62
  2338  00E0  01C3               	clrf	67	;volatile
  2339  00E1                     l1473:
  2340                           
  2341                           ;C:/Users/rocke/Desktop/PIC16-PTS/main.c: 144:     LATBbits.LATB2 = 1;
  2342  00E1  0140               	movlb	0	; select bank0
  2343  00E2  1517               	bsf	23,2	;volatile
  2344  00E3                     l1475:
  2345                           
  2346                           ;C:/Users/rocke/Desktop/PIC16-PTS/main.c: 148:     T0CON0bits.T0EN = 0;
  2347  00E3  139E               	bcf	30,7	;volatile
  2348  00E4                     l1477:
  2349                           
  2350                           ;C:/Users/rocke/Desktop/PIC16-PTS/main.c: 149:     T0CON0bits.T016BIT = 1;
  2351  00E4  161E               	bsf	30,4	;volatile
  2352  00E5                     l1479:
  2353                           
  2354                           ;C:/Users/rocke/Desktop/PIC16-PTS/main.c: 150:     T0CON0bits.T0OUTPS = 0b0000;
  2355  00E5  30F0               	movlw	-16
  2356  00E6  059E               	andwf	30,f	;volatile
  2357  00E7                     l1481:
  2358                           
  2359                           ;C:/Users/rocke/Desktop/PIC16-PTS/main.c: 152:     T0CON1bits.T0CS = 0b010;
  2360  00E7  081F               	movf	31,w	;volatile
  2361  00E8  391F               	andlw	-225
  2362  00E9  3840               	iorlw	64
  2363  00EA  009F               	movwf	31	;volatile
  2364  00EB                     l1483:
  2365                           
  2366                           ;C:/Users/rocke/Desktop/PIC16-PTS/main.c: 153:     T0CON1bits.T0ASYNC = 1;
  2367  00EB  161F               	bsf	31,4	;volatile
  2368  00EC                     l1485:
  2369                           
  2370                           ;C:/Users/rocke/Desktop/PIC16-PTS/main.c: 154:     T0CON1bits.T0CKPS = 0b0001;
  2371  00EC  081F               	movf	31,w	;volatile
  2372  00ED  39F0               	andlw	-16
  2373  00EE  3801               	iorlw	1
  2374  00EF  009F               	movwf	31	;volatile
  2375  00F0                     l93:
  2376  00F0  0008               	return
  2377  00F1                     __end_of_ranging_sys_init:
  2378                           
  2379                           	psect	text5
  2380  0217                     __ptext5:	
  2381 ;; *************** function _itoa *****************
  2382 ;; Defined at:
  2383 ;;		line 213 in file "C:/Users/rocke/Desktop/PIC16-PTS/main.c"
  2384 ;; Parameters:    Size  Location     Type
  2385 ;;  value           2    9[COMMON] int 
  2386 ;; Auto vars:     Size  Location     Type
  2387 ;;  c               2    2[BANK0 ] int 
  2388 ;;  original        2    0[BANK0 ] int 
  2389 ;; Return value:  Size  Location     Type
  2390 ;;                  1    wreg      PTR unsigned char 
  2391 ;; Registers used:
  2392 ;;		wreg, fsr1l, fsr1h, status,2, status,0, pclath, cstack
  2393 ;; Tracked objects:
  2394 ;;		On entry : 0/0
  2395 ;;		On exit  : 0/0
  2396 ;;		Unchanged: 0/0
  2397 ;; Data sizes:     COMMON   BANK0   BANK1   BANK2   BANK3   BANK4   BANK5   BANK6   BANK7   BANK8   BANK9  BANK10  BANK1
      +1  BANK12  BANK13  BANK14  BANK15  BANK16  BANK17  BANK18  BANK19  BANK20  BANK21  BANK22  BANK23  BANK24  BANK25  BANK2
      +6  BANK27  BANK28  BANK29  BANK30  BANK31  BANK32  BANK33  BANK34  BANK35  BANK36  BANK37  BANK38  BANK39  BANK40  BANK4
      +1  BANK42  BANK43  BANK44  BANK45  BANK46  BANK47  BANK48  BANK49  BANK50
  2398 ;;      Params:         2       0       0       0       0       0       0       0       0       0       0       0       
      +0       0       0       0       0       0       0       0       0       0       0       0       0       0       0       
      +0       0       0       0       0       0       0       0       0       0       0       0       0       0       0       
      +0       0       0       0       0       0       0       0       0       0
  2399 ;;      Locals:         0       4       0       0       0       0       0       0       0       0       0       0       
      +0       0       0       0       0       0       0       0       0       0       0       0       0       0       0       
      +0       0       0       0       0       0       0       0       0       0       0       0       0       0       0       
      +0       0       0       0       0       0       0       0       0       0
  2400 ;;      Temps:          1       0       0       0       0       0       0       0       0       0       0       0       
      +0       0       0       0       0       0       0       0       0       0       0       0       0       0       0       
      +0       0       0       0       0       0       0       0       0       0       0       0       0       0       0       
      +0       0       0       0       0       0       0       0       0       0
  2401 ;;      Totals:         3       4       0       0       0       0       0       0       0       0       0       0       
      +0       0       0       0       0       0       0       0       0       0       0       0       0       0       0       
      +0       0       0       0       0       0       0       0       0       0       0       0       0       0       0       
      +0       0       0       0       0       0       0       0       0       0
  2402 ;;Total ram usage:        7 bytes
  2403 ;; Hardware stack levels used: 1
  2404 ;; Hardware stack levels required when called: 1
  2405 ;; This function calls:
  2406 ;;		___awdiv
  2407 ;;		___awmod
  2408 ;; This function is called by:
  2409 ;;		_main
  2410 ;; This function uses a non-reentrant model
  2411 ;;
  2412                           
  2413                           
  2414                           ;psect for function _itoa
  2415  0217                     _itoa:
  2416  0217                     l1509:	
  2417                           ;incstack = 0
  2418                           ; Regs used in _itoa: [wreg+fsr1l+fsr1h+status,2+status,0+pclath+cstack]
  2419                           
  2420                           
  2421                           ;C:/Users/rocke/Desktop/PIC16-PTS/main.c: 213: char *itoa(int value);C:/Users/rocke/Desk
      +                          top/PIC16-PTS/main.c: 214:  {;C:/Users/rocke/Desktop/PIC16-PTS/main.c: 215:      static 
      +                          char buffer[12];;C:/Users/rocke/Desktop/PIC16-PTS/main.c: 216:      int original = value
      +                          ;
  2422  0217  087A               	movf	itoa@value+1,w
  2423  0218  0140               	movlb	0	; select bank0
  2424  0219  00A1               	movwf	itoa@original+1
  2425  021A  0879               	movf	itoa@value,w
  2426  021B  00A0               	movwf	itoa@original
  2427                           
  2428                           ;C:/Users/rocke/Desktop/PIC16-PTS/main.c: 218:      int c = sizeof(buffer)-1;
  2429  021C  300B               	movlw	11
  2430  021D  00A2               	movwf	itoa@c
  2431  021E  3000               	movlw	0
  2432  021F  00A3               	movwf	itoa@c+1
  2433  0220                     l1511:
  2434                           
  2435                           ;C:/Users/rocke/Desktop/PIC16-PTS/main.c: 220:      buffer[c] = 0;
  2436  0220  01D6               	clrf	itoa@buffer+11
  2437  0221                     l1513:
  2438                           
  2439                           ;C:/Users/rocke/Desktop/PIC16-PTS/main.c: 222:      if (value < 0)
  2440  0221  1FFA               	btfss	itoa@value+1,7
  2441  0222  2A24               	goto	u1341
  2442  0223  2A25               	goto	u1340
  2443  0224                     u1341:
  2444  0224  2A2A               	goto	l1517
  2445  0225                     u1340:
  2446  0225                     l1515:
  2447                           
  2448                           ;C:/Users/rocke/Desktop/PIC16-PTS/main.c: 223:          value = -value;
  2449  0225  09F9               	comf	itoa@value,f
  2450  0226  09FA               	comf	itoa@value+1,f
  2451  0227  0AF9               	incf	itoa@value,f
  2452  0228  1903               	skipnz
  2453  0229  0AFA               	incf	itoa@value+1,f
  2454  022A                     l1517:
  2455                           
  2456                           ;C:/Users/rocke/Desktop/PIC16-PTS/main.c: 226:      {;C:/Users/rocke/Desktop/PIC16-PTS/m
      +                          ain.c: 227:          buffer[--c] = (value % 10) + '0';
  2457  022A  300A               	movlw	10
  2458  022B  00F0               	movwf	___awmod@divisor
  2459  022C  3000               	movlw	0
  2460  022D  00F1               	movwf	___awmod@divisor+1
  2461  022E  087A               	movf	itoa@value+1,w
  2462  022F  00F3               	movwf	___awmod@dividend+1
  2463  0230  0879               	movf	itoa@value,w
  2464  0231  00F2               	movwf	___awmod@dividend
  2465  0232  3181  21C4  3182   	fcall	___awmod
  2466  0235  0870               	movf	?___awmod,w
  2467  0236  3E30               	addlw	48
  2468  0237  00FB               	movwf	??_itoa
  2469  0238  30FF               	movlw	255
  2470  0239  0140               	movlb	0	; select bank0
  2471  023A  07A2               	addwf	itoa@c,f
  2472  023B  30FF               	movlw	255
  2473  023C  3DA3               	addwfc	itoa@c+1,f
  2474  023D  0822               	movf	itoa@c,w
  2475  023E  3E4B               	addlw	(low (itoa@buffer| 0))& (0+255)
  2476  023F  0086               	movwf	6
  2477  0240  0187               	clrf	7
  2478  0241  087B               	movf	??_itoa,w
  2479  0242  0081               	movwf	1
  2480  0243                     l1519:
  2481                           
  2482                           ;C:/Users/rocke/Desktop/PIC16-PTS/main.c: 228:          value /= 10;
  2483  0243  300A               	movlw	10
  2484  0244  00F0               	movwf	___awdiv@divisor
  2485  0245  3000               	movlw	0
  2486  0246  00F1               	movwf	___awdiv@divisor+1
  2487  0247  087A               	movf	itoa@value+1,w
  2488  0248  00F3               	movwf	___awdiv@dividend+1
  2489  0249  0879               	movf	itoa@value,w
  2490  024A  00F2               	movwf	___awdiv@dividend
  2491  024B  3182  226C  3182   	fcall	___awdiv
  2492  024E  0871               	movf	?___awdiv+1,w
  2493  024F  00FA               	movwf	itoa@value+1
  2494  0250  0870               	movf	?___awdiv,w
  2495  0251  00F9               	movwf	itoa@value
  2496  0252                     l1521:
  2497                           
  2498                           ;C:/Users/rocke/Desktop/PIC16-PTS/main.c: 229:      } while (value);
  2499  0252  0879               	movf	itoa@value,w
  2500  0253  047A               	iorwf	itoa@value+1,w
  2501  0254  1D03               	btfss	3,2
  2502  0255  2A57               	goto	u1351
  2503  0256  2A58               	goto	u1350
  2504  0257                     u1351:
  2505  0257  2A2A               	goto	l1517
  2506  0258                     u1350:
  2507  0258                     l125:
  2508                           
  2509                           ;C:/Users/rocke/Desktop/PIC16-PTS/main.c: 231:      if (original < 0)
  2510  0258  0140               	movlb	0	; select bank0
  2511  0259  1FA1               	btfss	itoa@original+1,7
  2512  025A  2A5C               	goto	u1361
  2513  025B  2A5D               	goto	u1360
  2514  025C                     u1361:
  2515  025C  2A69               	goto	l1525
  2516  025D                     u1360:
  2517  025D                     l1523:
  2518                           
  2519                           ;C:/Users/rocke/Desktop/PIC16-PTS/main.c: 232:          buffer[--c] = '-';
  2520  025D  302D               	movlw	45
  2521  025E  00FB               	movwf	??_itoa
  2522  025F  30FF               	movlw	255
  2523  0260  07A2               	addwf	itoa@c,f
  2524  0261  30FF               	movlw	255
  2525  0262  3DA3               	addwfc	itoa@c+1,f
  2526  0263  0822               	movf	itoa@c,w
  2527  0264  3E4B               	addlw	(low (itoa@buffer| 0))& (0+255)
  2528  0265  0086               	movwf	6
  2529  0266  0187               	clrf	7
  2530  0267  087B               	movf	??_itoa,w
  2531  0268  0081               	movwf	1
  2532  0269                     l1525:
  2533                           
  2534                           ;C:/Users/rocke/Desktop/PIC16-PTS/main.c: 234:      return &buffer[c];
  2535  0269  0822               	movf	itoa@c,w
  2536  026A  3E4B               	addlw	(low (itoa@buffer| 0))& (0+255)
  2537  026B                     l127:
  2538  026B  0008               	return
  2539  026C                     __end_of_itoa:
  2540                           
  2541                           	psect	text6
  2542  0340                     __ptext6:	
  2543 ;; *************** function _dpsw_to_dc *****************
  2544 ;; Defined at:
  2545 ;;		line 265 in file "C:/Users/rocke/Desktop/PIC16-PTS/main.c"
  2546 ;; Parameters:    Size  Location     Type
  2547 ;;		None
  2548 ;; Auto vars:     Size  Location     Type
  2549 ;;  binary_d        2   18[BANK0 ] int 
  2550 ;;  decimal_num     2   16[BANK0 ] int 
  2551 ;;  num_base        2   14[BANK0 ] int 
  2552 ;;  rem             2   12[BANK0 ] int 
  2553 ;;  d3              2   10[BANK0 ] int 
  2554 ;;  d2              2    8[BANK0 ] int 
  2555 ;;  d1              2    6[BANK0 ] int 
  2556 ;;  d0              2    4[BANK0 ] int 
  2557 ;; Return value:  Size  Location     Type
  2558 ;;                  2    9[COMMON] int 
  2559 ;; Registers used:
  2560 ;;		wreg, status,2, status,0, pclath, cstack
  2561 ;; Tracked objects:
  2562 ;;		On entry : 0/0
  2563 ;;		On exit  : 0/0
  2564 ;;		Unchanged: 0/0
  2565 ;; Data sizes:     COMMON   BANK0   BANK1   BANK2   BANK3   BANK4   BANK5   BANK6   BANK7   BANK8   BANK9  BANK10  BANK1
      +1  BANK12  BANK13  BANK14  BANK15  BANK16  BANK17  BANK18  BANK19  BANK20  BANK21  BANK22  BANK23  BANK24  BANK25  BANK2
      +6  BANK27  BANK28  BANK29  BANK30  BANK31  BANK32  BANK33  BANK34  BANK35  BANK36  BANK37  BANK38  BANK39  BANK40  BANK4
      +1  BANK42  BANK43  BANK44  BANK45  BANK46  BANK47  BANK48  BANK49  BANK50
  2566 ;;      Params:         2       0       0       0       0       0       0       0       0       0       0       0       
      +0       0       0       0       0       0       0       0       0       0       0       0       0       0       0       
      +0       0       0       0       0       0       0       0       0       0       0       0       0       0       0       
      +0       0       0       0       0       0       0       0       0       0
  2567 ;;      Locals:         0      16       0       0       0       0       0       0       0       0       0       0       
      +0       0       0       0       0       0       0       0       0       0       0       0       0       0       0       
      +0       0       0       0       0       0       0       0       0       0       0       0       0       0       0       
      +0       0       0       0       0       0       0       0       0       0
  2568 ;;      Temps:          0       4       0       0       0       0       0       0       0       0       0       0       
      +0       0       0       0       0       0       0       0       0       0       0       0       0       0       0       
      +0       0       0       0       0       0       0       0       0       0       0       0       0       0       0       
      +0       0       0       0       0       0       0       0       0       0
  2569 ;;      Totals:         2      20       0       0       0       0       0       0       0       0       0       0       
      +0       0       0       0       0       0       0       0       0       0       0       0       0       0       0       
      +0       0       0       0       0       0       0       0       0       0       0       0       0       0       0       
      +0       0       0       0       0       0       0       0       0       0
  2570 ;;Total ram usage:       22 bytes
  2571 ;; Hardware stack levels used: 1
  2572 ;; Hardware stack levels required when called: 1
  2573 ;; This function calls:
  2574 ;;		___awdiv
  2575 ;;		___awmod
  2576 ;;		___wmul
  2577 ;; This function is called by:
  2578 ;;		_main
  2579 ;; This function uses a non-reentrant model
  2580 ;;
  2581                           
  2582                           
  2583                           ;psect for function _dpsw_to_dc
  2584  0340                     _dpsw_to_dc:
  2585  0340                     l1539:	
  2586                           ;incstack = 0
  2587                           ; Regs used in _dpsw_to_dc: [wreg+status,2+status,0+pclath+cstack]
  2588                           
  2589                           
  2590                           ;C:/Users/rocke/Desktop/PIC16-PTS/main.c: 268:     int d0;;C:/Users/rocke/Desktop/PIC16-
      +                          PTS/main.c: 269:     int d1;;C:/Users/rocke/Desktop/PIC16-PTS/main.c: 270:     int d2;;C
      +                          :/Users/rocke/Desktop/PIC16-PTS/main.c: 271:     int d3;;C:/Users/rocke/Desktop/PIC16-PT
      +                          S/main.c: 273:     if(RA0){d0 = 1000;} else {d0 = 0;}
  2591  0340  0140               	movlb	0	; select bank0
  2592  0341  1C0C               	btfss	12,0	;volatile
  2593  0342  2B44               	goto	u1391
  2594  0343  2B45               	goto	u1390
  2595  0344                     u1391:
  2596  0344  2B4A               	goto	l1543
  2597  0345                     u1390:
  2598  0345                     l1541:
  2599  0345  30E8               	movlw	232
  2600  0346  00A4               	movwf	dpsw_to_dc@d0
  2601  0347  3003               	movlw	3
  2602  0348  00A5               	movwf	dpsw_to_dc@d0+1
  2603  0349  2B4C               	goto	l1545
  2604  034A                     l1543:
  2605  034A  01A4               	clrf	dpsw_to_dc@d0
  2606  034B  01A5               	clrf	dpsw_to_dc@d0+1
  2607  034C                     l1545:
  2608                           
  2609                           ;C:/Users/rocke/Desktop/PIC16-PTS/main.c: 274:     if(RA1){d1 = 100;} else {d1 = 0;}
  2610  034C  1C8C               	btfss	12,1	;volatile
  2611  034D  2B4F               	goto	u1401
  2612  034E  2B50               	goto	u1400
  2613  034F                     u1401:
  2614  034F  2B55               	goto	l1549
  2615  0350                     u1400:
  2616  0350                     l1547:
  2617  0350  3064               	movlw	100
  2618  0351  00A6               	movwf	dpsw_to_dc@d1
  2619  0352  3000               	movlw	0
  2620  0353  00A7               	movwf	dpsw_to_dc@d1+1
  2621  0354  2B57               	goto	l1551
  2622  0355                     l1549:
  2623  0355  01A6               	clrf	dpsw_to_dc@d1
  2624  0356  01A7               	clrf	dpsw_to_dc@d1+1
  2625  0357                     l1551:
  2626                           
  2627                           ;C:/Users/rocke/Desktop/PIC16-PTS/main.c: 275:     if(RA2){d2 = 10;} else {d2 = 0;}
  2628  0357  1D0C               	btfss	12,2	;volatile
  2629  0358  2B5A               	goto	u1411
  2630  0359  2B5B               	goto	u1410
  2631  035A                     u1411:
  2632  035A  2B60               	goto	l1555
  2633  035B                     u1410:
  2634  035B                     l1553:
  2635  035B  300A               	movlw	10
  2636  035C  00A8               	movwf	dpsw_to_dc@d2
  2637  035D  3000               	movlw	0
  2638  035E  00A9               	movwf	dpsw_to_dc@d2+1
  2639  035F  2B62               	goto	l1557
  2640  0360                     l1555:
  2641  0360  01A8               	clrf	dpsw_to_dc@d2
  2642  0361  01A9               	clrf	dpsw_to_dc@d2+1
  2643  0362                     l1557:
  2644                           
  2645                           ;C:/Users/rocke/Desktop/PIC16-PTS/main.c: 276:     if(RA3){d3 = 1;} else {d3 = 0;}
  2646  0362  1D8C               	btfss	12,3	;volatile
  2647  0363  2B65               	goto	u1421
  2648  0364  2B66               	goto	u1420
  2649  0365                     u1421:
  2650  0365  2B6B               	goto	l1561
  2651  0366                     u1420:
  2652  0366                     l1559:
  2653  0366  3001               	movlw	1
  2654  0367  00AA               	movwf	dpsw_to_dc@d3
  2655  0368  3000               	movlw	0
  2656  0369  00AB               	movwf	dpsw_to_dc@d3+1
  2657  036A  2B6D               	goto	l1563
  2658  036B                     l1561:
  2659  036B  01AA               	clrf	dpsw_to_dc@d3
  2660  036C  01AB               	clrf	dpsw_to_dc@d3+1
  2661  036D                     l1563:
  2662                           
  2663                           ;C:/Users/rocke/Desktop/PIC16-PTS/main.c: 278:     int binary_d = d0 + d1 + d2 + d3;
  2664  036D  0826               	movf	dpsw_to_dc@d1,w
  2665  036E  0724               	addwf	dpsw_to_dc@d0,w
  2666  036F  00A0               	movwf	??_dpsw_to_dc
  2667  0370  0827               	movf	dpsw_to_dc@d1+1,w
  2668  0371  3D25               	addwfc	dpsw_to_dc@d0+1,w
  2669  0372  00A1               	movwf	??_dpsw_to_dc+1
  2670  0373  0828               	movf	dpsw_to_dc@d2,w
  2671  0374  0720               	addwf	??_dpsw_to_dc,w
  2672  0375  00A2               	movwf	??_dpsw_to_dc+2
  2673  0376  0829               	movf	dpsw_to_dc@d2+1,w
  2674  0377  3D21               	addwfc	??_dpsw_to_dc+1,w
  2675  0378  00A3               	movwf	??_dpsw_to_dc+3
  2676  0379  082A               	movf	dpsw_to_dc@d3,w
  2677  037A  0722               	addwf	??_dpsw_to_dc+2,w
  2678  037B  00B2               	movwf	dpsw_to_dc@binary_d
  2679  037C  082B               	movf	dpsw_to_dc@d3+1,w
  2680  037D  3D23               	addwfc	??_dpsw_to_dc+3,w
  2681  037E  00B3               	movwf	dpsw_to_dc@binary_d+1
  2682  037F                     l1565:
  2683                           
  2684                           ;C:/Users/rocke/Desktop/PIC16-PTS/main.c: 280:     if(binary_d == 0)
  2685  037F  0832               	movf	dpsw_to_dc@binary_d,w
  2686  0380  0433               	iorwf	dpsw_to_dc@binary_d+1,w
  2687  0381  1D03               	btfss	3,2
  2688  0382  2B84               	goto	u1431
  2689  0383  2B85               	goto	u1430
  2690  0384                     u1431:
  2691  0384  2B88               	goto	l1571
  2692  0385                     u1430:
  2693  0385                     l1567:
  2694                           
  2695                           ;C:/Users/rocke/Desktop/PIC16-PTS/main.c: 281:     {;C:/Users/rocke/Desktop/PIC16-PTS/ma
      +                          in.c: 282:         return 0;
  2696  0385  01F9               	clrf	?_dpsw_to_dc
  2697  0386  01FA               	clrf	?_dpsw_to_dc+1
  2698  0387  2BDA               	goto	l148
  2699  0388                     l1571:
  2700                           
  2701                           ;C:/Users/rocke/Desktop/PIC16-PTS/main.c: 285:     int num_base = 1;
  2702  0388  3001               	movlw	1
  2703  0389  00AE               	movwf	dpsw_to_dc@num_base
  2704  038A  3000               	movlw	0
  2705  038B  00AF               	movwf	dpsw_to_dc@num_base+1
  2706  038C                     l1573:
  2707  038C                     l1575:
  2708                           
  2709                           ;C:/Users/rocke/Desktop/PIC16-PTS/main.c: 287:     int decimal_num = 5;
  2710  038C  3005               	movlw	5
  2711  038D  00B0               	movwf	dpsw_to_dc@decimal_num
  2712  038E  3000               	movlw	0
  2713  038F  00B1               	movwf	dpsw_to_dc@decimal_num+1
  2714                           
  2715                           ;C:/Users/rocke/Desktop/PIC16-PTS/main.c: 289:     while ( binary_d > 0)
  2716  0390  2BC8               	goto	l1581
  2717  0391                     l1577:
  2718                           
  2719                           ;C:/Users/rocke/Desktop/PIC16-PTS/main.c: 290:     {;C:/Users/rocke/Desktop/PIC16-PTS/ma
      +                          in.c: 291:         rem = binary_d % 10;
  2720  0391  300A               	movlw	10
  2721  0392  00F0               	movwf	___awmod@divisor
  2722  0393  3000               	movlw	0
  2723  0394  00F1               	movwf	___awmod@divisor+1
  2724  0395  0140               	movlb	0	; select bank0
  2725  0396  0833               	movf	dpsw_to_dc@binary_d+1,w
  2726  0397  00F3               	movwf	___awmod@dividend+1
  2727  0398  0832               	movf	dpsw_to_dc@binary_d,w
  2728  0399  00F2               	movwf	___awmod@dividend
  2729  039A  3181  21C4  3183   	fcall	___awmod
  2730  039D  0871               	movf	?___awmod+1,w
  2731  039E  0140               	movlb	0	; select bank0
  2732  039F  00AD               	movwf	dpsw_to_dc@rem+1
  2733  03A0  0870               	movf	?___awmod,w
  2734  03A1  00AC               	movwf	dpsw_to_dc@rem
  2735                           
  2736                           ;C:/Users/rocke/Desktop/PIC16-PTS/main.c: 292:         decimal_num = decimal_num + rem *
      +                           num_base;
  2737  03A2  082D               	movf	dpsw_to_dc@rem+1,w
  2738  03A3  00F1               	movwf	___wmul@multiplier+1
  2739  03A4  082C               	movf	dpsw_to_dc@rem,w
  2740  03A5  00F0               	movwf	___wmul@multiplier
  2741  03A6  082F               	movf	dpsw_to_dc@num_base+1,w
  2742  03A7  00F3               	movwf	___wmul@multiplicand+1
  2743  03A8  082E               	movf	dpsw_to_dc@num_base,w
  2744  03A9  00F2               	movwf	___wmul@multiplicand
  2745  03AA  3181  210A  3183   	fcall	___wmul
  2746  03AD  0140               	movlb	0	; select bank0
  2747  03AE  0830               	movf	dpsw_to_dc@decimal_num,w
  2748  03AF  0770               	addwf	?___wmul,w
  2749  03B0  00B0               	movwf	dpsw_to_dc@decimal_num
  2750  03B1  0831               	movf	dpsw_to_dc@decimal_num+1,w
  2751  03B2  3D71               	addwfc	?___wmul+1,w
  2752  03B3  00B1               	movwf	dpsw_to_dc@decimal_num+1
  2753                           
  2754                           ;C:/Users/rocke/Desktop/PIC16-PTS/main.c: 293:         binary_d = binary_d/ 10;
  2755  03B4  300A               	movlw	10
  2756  03B5  00F0               	movwf	___awdiv@divisor
  2757  03B6  3000               	movlw	0
  2758  03B7  00F1               	movwf	___awdiv@divisor+1
  2759  03B8  0833               	movf	dpsw_to_dc@binary_d+1,w
  2760  03B9  00F3               	movwf	___awdiv@dividend+1
  2761  03BA  0832               	movf	dpsw_to_dc@binary_d,w
  2762  03BB  00F2               	movwf	___awdiv@dividend
  2763  03BC  3182  226C  3183   	fcall	___awdiv
  2764  03BF  0871               	movf	?___awdiv+1,w
  2765  03C0  0140               	movlb	0	; select bank0
  2766  03C1  00B3               	movwf	dpsw_to_dc@binary_d+1
  2767  03C2  0870               	movf	?___awdiv,w
  2768  03C3  00B2               	movwf	dpsw_to_dc@binary_d
  2769  03C4                     l1579:
  2770                           
  2771                           ;C:/Users/rocke/Desktop/PIC16-PTS/main.c: 294:         num_base = num_base * 2;
  2772  03C4  352E               	lslf	dpsw_to_dc@num_base,w
  2773  03C5  00AE               	movwf	dpsw_to_dc@num_base
  2774  03C6  0D2F               	rlf	dpsw_to_dc@num_base+1,w
  2775  03C7  00AF               	movwf	dpsw_to_dc@num_base+1
  2776  03C8                     l1581:
  2777                           
  2778                           ;C:/Users/rocke/Desktop/PIC16-PTS/main.c: 289:     while ( binary_d > 0)
  2779  03C8  0833               	movf	dpsw_to_dc@binary_d+1,w
  2780  03C9  3A80               	xorlw	128
  2781  03CA  00A0               	movwf	??_dpsw_to_dc
  2782  03CB  3080               	movlw	128
  2783  03CC  0220               	subwf	??_dpsw_to_dc,w
  2784  03CD  1D03               	skipz
  2785  03CE  2BD1               	goto	u1445
  2786  03CF  3001               	movlw	1
  2787  03D0  0232               	subwf	dpsw_to_dc@binary_d,w
  2788  03D1                     u1445:
  2789  03D1  1803               	skipnc
  2790  03D2  2BD4               	goto	u1441
  2791  03D3  2BD5               	goto	u1440
  2792  03D4                     u1441:
  2793  03D4  2B91               	goto	l1577
  2794  03D5                     u1440:
  2795  03D5                     l1583:
  2796                           
  2797                           ;C:/Users/rocke/Desktop/PIC16-PTS/main.c: 298:     return decimal_num;
  2798  03D5  0140               	movlb	0	; select bank0
  2799  03D6  0831               	movf	dpsw_to_dc@decimal_num+1,w
  2800  03D7  00FA               	movwf	?_dpsw_to_dc+1
  2801  03D8  0830               	movf	dpsw_to_dc@decimal_num,w
  2802  03D9  00F9               	movwf	?_dpsw_to_dc
  2803  03DA                     l148:
  2804  03DA  0008               	return
  2805  03DB                     __end_of_dpsw_to_dc:
  2806                           
  2807                           	psect	text7
  2808  010A                     __ptext7:	
  2809 ;; *************** function ___wmul *****************
  2810 ;; Defined at:
  2811 ;;		line 15 in file "C:\Program Files\Microchip\xc8\v2.32\pic\sources\c99\common\Umul16.c"
  2812 ;; Parameters:    Size  Location     Type
  2813 ;;  multiplier      2    0[COMMON] unsigned int 
  2814 ;;  multiplicand    2    2[COMMON] unsigned int 
  2815 ;; Auto vars:     Size  Location     Type
  2816 ;;  product         2    4[COMMON] unsigned int 
  2817 ;; Return value:  Size  Location     Type
  2818 ;;                  2    0[COMMON] unsigned int 
  2819 ;; Registers used:
  2820 ;;		wreg, status,2, status,0
  2821 ;; Tracked objects:
  2822 ;;		On entry : 0/0
  2823 ;;		On exit  : 0/0
  2824 ;;		Unchanged: 0/0
  2825 ;; Data sizes:     COMMON   BANK0   BANK1   BANK2   BANK3   BANK4   BANK5   BANK6   BANK7   BANK8   BANK9  BANK10  BANK1
      +1  BANK12  BANK13  BANK14  BANK15  BANK16  BANK17  BANK18  BANK19  BANK20  BANK21  BANK22  BANK23  BANK24  BANK25  BANK2
      +6  BANK27  BANK28  BANK29  BANK30  BANK31  BANK32  BANK33  BANK34  BANK35  BANK36  BANK37  BANK38  BANK39  BANK40  BANK4
      +1  BANK42  BANK43  BANK44  BANK45  BANK46  BANK47  BANK48  BANK49  BANK50
  2826 ;;      Params:         4       0       0       0       0       0       0       0       0       0       0       0       
      +0       0       0       0       0       0       0       0       0       0       0       0       0       0       0       
      +0       0       0       0       0       0       0       0       0       0       0       0       0       0       0       
      +0       0       0       0       0       0       0       0       0       0
  2827 ;;      Locals:         2       0       0       0       0       0       0       0       0       0       0       0       
      +0       0       0       0       0       0       0       0       0       0       0       0       0       0       0       
      +0       0       0       0       0       0       0       0       0       0       0       0       0       0       0       
      +0       0       0       0       0       0       0       0       0       0
  2828 ;;      Temps:          0       0       0       0       0       0       0       0       0       0       0       0       
      +0       0       0       0       0       0       0       0       0       0       0       0       0       0       0       
      +0       0       0       0       0       0       0       0       0       0       0       0       0       0       0       
      +0       0       0       0       0       0       0       0       0       0
  2829 ;;      Totals:         6       0       0       0       0       0       0       0       0       0       0       0       
      +0       0       0       0       0       0       0       0       0       0       0       0       0       0       0       
      +0       0       0       0       0       0       0       0       0       0       0       0       0       0       0       
      +0       0       0       0       0       0       0       0       0       0
  2830 ;;Total ram usage:        6 bytes
  2831 ;; Hardware stack levels used: 1
  2832 ;; This function calls:
  2833 ;;		Nothing
  2834 ;; This function is called by:
  2835 ;;		_dpsw_to_dc
  2836 ;; This function uses a non-reentrant model
  2837 ;;
  2838                           
  2839                           
  2840                           ;psect for function ___wmul
  2841  010A                     ___wmul:
  2842  010A                     l1327:	
  2843                           ;incstack = 0
  2844                           ; Regs used in ___wmul: [wreg+status,2+status,0]
  2845                           
  2846  010A  01F4               	clrf	___wmul@product
  2847  010B  01F5               	clrf	___wmul@product+1
  2848  010C                     l1329:
  2849  010C  1C70               	btfss	___wmul@multiplier,0
  2850  010D  290F               	goto	u1011
  2851  010E  2910               	goto	u1010
  2852  010F                     u1011:
  2853  010F  2914               	goto	l319
  2854  0110                     u1010:
  2855  0110                     l1331:
  2856  0110  0872               	movf	___wmul@multiplicand,w
  2857  0111  07F4               	addwf	___wmul@product,f
  2858  0112  0873               	movf	___wmul@multiplicand+1,w
  2859  0113  3DF5               	addwfc	___wmul@product+1,f
  2860  0114                     l319:
  2861  0114  3001               	movlw	1
  2862  0115                     u1025:
  2863  0115  35F2               	lslf	___wmul@multiplicand,f
  2864  0116  0DF3               	rlf	___wmul@multiplicand+1,f
  2865  0117  0B89               	decfsz	9,f
  2866  0118  2915               	goto	u1025
  2867  0119                     l1333:
  2868  0119  3001               	movlw	1
  2869  011A                     u1035:
  2870  011A  36F1               	lsrf	___wmul@multiplier+1,f
  2871  011B  0CF0               	rrf	___wmul@multiplier,f
  2872  011C  0B89               	decfsz	9,f
  2873  011D  291A               	goto	u1035
  2874  011E                     l1335:
  2875  011E  0870               	movf	___wmul@multiplier,w
  2876  011F  0471               	iorwf	___wmul@multiplier+1,w
  2877  0120  1D03               	btfss	3,2
  2878  0121  2923               	goto	u1041
  2879  0122  2924               	goto	u1040
  2880  0123                     u1041:
  2881  0123  290C               	goto	l1329
  2882  0124                     u1040:
  2883  0124                     l1337:
  2884  0124  0875               	movf	___wmul@product+1,w
  2885  0125  00F1               	movwf	?___wmul+1
  2886  0126  0874               	movf	___wmul@product,w
  2887  0127  00F0               	movwf	?___wmul
  2888  0128                     l321:
  2889  0128  0008               	return
  2890  0129                     __end_of___wmul:
  2891                           
  2892                           	psect	text8
  2893  01C4                     __ptext8:	
  2894 ;; *************** function ___awmod *****************
  2895 ;; Defined at:
  2896 ;;		line 5 in file "C:\Program Files\Microchip\xc8\v2.32\pic\sources\c99\common\awmod.c"
  2897 ;; Parameters:    Size  Location     Type
  2898 ;;  divisor         2    0[COMMON] int 
  2899 ;;  dividend        2    2[COMMON] int 
  2900 ;; Auto vars:     Size  Location     Type
  2901 ;;  sign            1    6[COMMON] unsigned char 
  2902 ;;  counter         1    5[COMMON] unsigned char 
  2903 ;; Return value:  Size  Location     Type
  2904 ;;                  2    0[COMMON] int 
  2905 ;; Registers used:
  2906 ;;		wreg, status,2, status,0
  2907 ;; Tracked objects:
  2908 ;;		On entry : 0/0
  2909 ;;		On exit  : 0/0
  2910 ;;		Unchanged: 0/0
  2911 ;; Data sizes:     COMMON   BANK0   BANK1   BANK2   BANK3   BANK4   BANK5   BANK6   BANK7   BANK8   BANK9  BANK10  BANK1
      +1  BANK12  BANK13  BANK14  BANK15  BANK16  BANK17  BANK18  BANK19  BANK20  BANK21  BANK22  BANK23  BANK24  BANK25  BANK2
      +6  BANK27  BANK28  BANK29  BANK30  BANK31  BANK32  BANK33  BANK34  BANK35  BANK36  BANK37  BANK38  BANK39  BANK40  BANK4
      +1  BANK42  BANK43  BANK44  BANK45  BANK46  BANK47  BANK48  BANK49  BANK50
  2912 ;;      Params:         4       0       0       0       0       0       0       0       0       0       0       0       
      +0       0       0       0       0       0       0       0       0       0       0       0       0       0       0       
      +0       0       0       0       0       0       0       0       0       0       0       0       0       0       0       
      +0       0       0       0       0       0       0       0       0       0
  2913 ;;      Locals:         2       0       0       0       0       0       0       0       0       0       0       0       
      +0       0       0       0       0       0       0       0       0       0       0       0       0       0       0       
      +0       0       0       0       0       0       0       0       0       0       0       0       0       0       0       
      +0       0       0       0       0       0       0       0       0       0
  2914 ;;      Temps:          1       0       0       0       0       0       0       0       0       0       0       0       
      +0       0       0       0       0       0       0       0       0       0       0       0       0       0       0       
      +0       0       0       0       0       0       0       0       0       0       0       0       0       0       0       
      +0       0       0       0       0       0       0       0       0       0
  2915 ;;      Totals:         7       0       0       0       0       0       0       0       0       0       0       0       
      +0       0       0       0       0       0       0       0       0       0       0       0       0       0       0       
      +0       0       0       0       0       0       0       0       0       0       0       0       0       0       0       
      +0       0       0       0       0       0       0       0       0       0
  2916 ;;Total ram usage:        7 bytes
  2917 ;; Hardware stack levels used: 1
  2918 ;; This function calls:
  2919 ;;		Nothing
  2920 ;; This function is called by:
  2921 ;;		_itoa
  2922 ;;		_dpsw_to_dc
  2923 ;; This function uses a non-reentrant model
  2924 ;;
  2925                           
  2926                           
  2927                           ;psect for function ___awmod
  2928  01C4                     ___awmod:
  2929  01C4                     l1385:	
  2930                           ;incstack = 0
  2931                           ; Regs used in ___awmod: [wreg+status,2+status,0]
  2932                           
  2933  01C4  01F6               	clrf	___awmod@sign
  2934  01C5                     l1387:
  2935  01C5  1FF3               	btfss	___awmod@dividend+1,7
  2936  01C6  29C8               	goto	u1151
  2937  01C7  29C9               	goto	u1150
  2938  01C8                     u1151:
  2939  01C8  29D0               	goto	l1393
  2940  01C9                     u1150:
  2941  01C9                     l1389:
  2942  01C9  09F2               	comf	___awmod@dividend,f
  2943  01CA  09F3               	comf	___awmod@dividend+1,f
  2944  01CB  0AF2               	incf	___awmod@dividend,f
  2945  01CC  1903               	skipnz
  2946  01CD  0AF3               	incf	___awmod@dividend+1,f
  2947  01CE                     l1391:
  2948  01CE  01F6               	clrf	___awmod@sign
  2949  01CF  0AF6               	incf	___awmod@sign,f
  2950  01D0                     l1393:
  2951  01D0  1FF1               	btfss	___awmod@divisor+1,7
  2952  01D1  29D3               	goto	u1161
  2953  01D2  29D4               	goto	u1160
  2954  01D3                     u1161:
  2955  01D3  29D9               	goto	l1397
  2956  01D4                     u1160:
  2957  01D4                     l1395:
  2958  01D4  09F0               	comf	___awmod@divisor,f
  2959  01D5  09F1               	comf	___awmod@divisor+1,f
  2960  01D6  0AF0               	incf	___awmod@divisor,f
  2961  01D7  1903               	skipnz
  2962  01D8  0AF1               	incf	___awmod@divisor+1,f
  2963  01D9                     l1397:
  2964  01D9  0870               	movf	___awmod@divisor,w
  2965  01DA  0471               	iorwf	___awmod@divisor+1,w
  2966  01DB  1903               	btfsc	3,2
  2967  01DC  29DE               	goto	u1171
  2968  01DD  29DF               	goto	u1170
  2969  01DE                     u1171:
  2970  01DE  2A08               	goto	l1415
  2971  01DF                     u1170:
  2972  01DF                     l1399:
  2973  01DF  01F5               	clrf	___awmod@counter
  2974  01E0  0AF5               	incf	___awmod@counter,f
  2975  01E1  29EB               	goto	l1405
  2976  01E2                     l1401:
  2977  01E2  3001               	movlw	1
  2978  01E3                     u1185:
  2979  01E3  35F0               	lslf	___awmod@divisor,f
  2980  01E4  0DF1               	rlf	___awmod@divisor+1,f
  2981  01E5  0B89               	decfsz	9,f
  2982  01E6  29E3               	goto	u1185
  2983  01E7                     l1403:
  2984  01E7  3001               	movlw	1
  2985  01E8  00F4               	movwf	??___awmod
  2986  01E9  0874               	movf	??___awmod,w
  2987  01EA  07F5               	addwf	___awmod@counter,f
  2988  01EB                     l1405:
  2989  01EB  1FF1               	btfss	___awmod@divisor+1,7
  2990  01EC  29EE               	goto	u1191
  2991  01ED  29EF               	goto	u1190
  2992  01EE                     u1191:
  2993  01EE  29E2               	goto	l1401
  2994  01EF                     u1190:
  2995  01EF                     l1407:
  2996  01EF  0871               	movf	___awmod@divisor+1,w
  2997  01F0  0273               	subwf	___awmod@dividend+1,w
  2998  01F1  1D03               	skipz
  2999  01F2  29F5               	goto	u1205
  3000  01F3  0870               	movf	___awmod@divisor,w
  3001  01F4  0272               	subwf	___awmod@dividend,w
  3002  01F5                     u1205:
  3003  01F5  1C03               	skipc
  3004  01F6  29F8               	goto	u1201
  3005  01F7  29F9               	goto	u1200
  3006  01F8                     u1201:
  3007  01F8  29FD               	goto	l1411
  3008  01F9                     u1200:
  3009  01F9                     l1409:
  3010  01F9  0870               	movf	___awmod@divisor,w
  3011  01FA  02F2               	subwf	___awmod@dividend,f
  3012  01FB  0871               	movf	___awmod@divisor+1,w
  3013  01FC  3BF3               	subwfb	___awmod@dividend+1,f
  3014  01FD                     l1411:
  3015  01FD  3001               	movlw	1
  3016  01FE                     u1215:
  3017  01FE  36F1               	lsrf	___awmod@divisor+1,f
  3018  01FF  0CF0               	rrf	___awmod@divisor,f
  3019  0200  0B89               	decfsz	9,f
  3020  0201  29FE               	goto	u1215
  3021  0202                     l1413:
  3022  0202  3001               	movlw	1
  3023  0203  02F5               	subwf	___awmod@counter,f
  3024  0204  1D03               	btfss	3,2
  3025  0205  2A07               	goto	u1221
  3026  0206  2A08               	goto	u1220
  3027  0207                     u1221:
  3028  0207  29EF               	goto	l1407
  3029  0208                     u1220:
  3030  0208                     l1415:
  3031  0208  0876               	movf	___awmod@sign,w
  3032  0209  1903               	btfsc	3,2
  3033  020A  2A0C               	goto	u1231
  3034  020B  2A0D               	goto	u1230
  3035  020C                     u1231:
  3036  020C  2A12               	goto	l1419
  3037  020D                     u1230:
  3038  020D                     l1417:
  3039  020D  09F2               	comf	___awmod@dividend,f
  3040  020E  09F3               	comf	___awmod@dividend+1,f
  3041  020F  0AF2               	incf	___awmod@dividend,f
  3042  0210  1903               	skipnz
  3043  0211  0AF3               	incf	___awmod@dividend+1,f
  3044  0212                     l1419:
  3045  0212  0873               	movf	___awmod@dividend+1,w
  3046  0213  00F1               	movwf	?___awmod+1
  3047  0214  0872               	movf	___awmod@dividend,w
  3048  0215  00F0               	movwf	?___awmod
  3049  0216                     l485:
  3050  0216  0008               	return
  3051  0217                     __end_of___awmod:
  3052                           
  3053                           	psect	text9
  3054  026C                     __ptext9:	
  3055 ;; *************** function ___awdiv *****************
  3056 ;; Defined at:
  3057 ;;		line 5 in file "C:\Program Files\Microchip\xc8\v2.32\pic\sources\c99\common\awdiv.c"
  3058 ;; Parameters:    Size  Location     Type
  3059 ;;  divisor         2    0[COMMON] int 
  3060 ;;  dividend        2    2[COMMON] int 
  3061 ;; Auto vars:     Size  Location     Type
  3062 ;;  quotient        2    7[COMMON] int 
  3063 ;;  sign            1    6[COMMON] unsigned char 
  3064 ;;  counter         1    5[COMMON] unsigned char 
  3065 ;; Return value:  Size  Location     Type
  3066 ;;                  2    0[COMMON] int 
  3067 ;; Registers used:
  3068 ;;		wreg, status,2, status,0
  3069 ;; Tracked objects:
  3070 ;;		On entry : 0/0
  3071 ;;		On exit  : 0/0
  3072 ;;		Unchanged: 0/0
  3073 ;; Data sizes:     COMMON   BANK0   BANK1   BANK2   BANK3   BANK4   BANK5   BANK6   BANK7   BANK8   BANK9  BANK10  BANK1
      +1  BANK12  BANK13  BANK14  BANK15  BANK16  BANK17  BANK18  BANK19  BANK20  BANK21  BANK22  BANK23  BANK24  BANK25  BANK2
      +6  BANK27  BANK28  BANK29  BANK30  BANK31  BANK32  BANK33  BANK34  BANK35  BANK36  BANK37  BANK38  BANK39  BANK40  BANK4
      +1  BANK42  BANK43  BANK44  BANK45  BANK46  BANK47  BANK48  BANK49  BANK50
  3074 ;;      Params:         4       0       0       0       0       0       0       0       0       0       0       0       
      +0       0       0       0       0       0       0       0       0       0       0       0       0       0       0       
      +0       0       0       0       0       0       0       0       0       0       0       0       0       0       0       
      +0       0       0       0       0       0       0       0       0       0
  3075 ;;      Locals:         4       0       0       0       0       0       0       0       0       0       0       0       
      +0       0       0       0       0       0       0       0       0       0       0       0       0       0       0       
      +0       0       0       0       0       0       0       0       0       0       0       0       0       0       0       
      +0       0       0       0       0       0       0       0       0       0
  3076 ;;      Temps:          1       0       0       0       0       0       0       0       0       0       0       0       
      +0       0       0       0       0       0       0       0       0       0       0       0       0       0       0       
      +0       0       0       0       0       0       0       0       0       0       0       0       0       0       0       
      +0       0       0       0       0       0       0       0       0       0
  3077 ;;      Totals:         9       0       0       0       0       0       0       0       0       0       0       0       
      +0       0       0       0       0       0       0       0       0       0       0       0       0       0       0       
      +0       0       0       0       0       0       0       0       0       0       0       0       0       0       0       
      +0       0       0       0       0       0       0       0       0       0
  3078 ;;Total ram usage:        9 bytes
  3079 ;; Hardware stack levels used: 1
  3080 ;; This function calls:
  3081 ;;		Nothing
  3082 ;; This function is called by:
  3083 ;;		_itoa
  3084 ;;		_dpsw_to_dc
  3085 ;; This function uses a non-reentrant model
  3086 ;;
  3087                           
  3088                           
  3089                           ;psect for function ___awdiv
  3090  026C                     ___awdiv:
  3091  026C                     l1341:	
  3092                           ;incstack = 0
  3093                           ; Regs used in ___awdiv: [wreg+status,2+status,0]
  3094                           
  3095  026C  01F6               	clrf	___awdiv@sign
  3096  026D                     l1343:
  3097  026D  1FF1               	btfss	___awdiv@divisor+1,7
  3098  026E  2A70               	goto	u1051
  3099  026F  2A71               	goto	u1050
  3100  0270                     u1051:
  3101  0270  2A78               	goto	l1349
  3102  0271                     u1050:
  3103  0271                     l1345:
  3104  0271  09F0               	comf	___awdiv@divisor,f
  3105  0272  09F1               	comf	___awdiv@divisor+1,f
  3106  0273  0AF0               	incf	___awdiv@divisor,f
  3107  0274  1903               	skipnz
  3108  0275  0AF1               	incf	___awdiv@divisor+1,f
  3109  0276                     l1347:
  3110  0276  01F6               	clrf	___awdiv@sign
  3111  0277  0AF6               	incf	___awdiv@sign,f
  3112  0278                     l1349:
  3113  0278  1FF3               	btfss	___awdiv@dividend+1,7
  3114  0279  2A7B               	goto	u1061
  3115  027A  2A7C               	goto	u1060
  3116  027B                     u1061:
  3117  027B  2A85               	goto	l1355
  3118  027C                     u1060:
  3119  027C                     l1351:
  3120  027C  09F2               	comf	___awdiv@dividend,f
  3121  027D  09F3               	comf	___awdiv@dividend+1,f
  3122  027E  0AF2               	incf	___awdiv@dividend,f
  3123  027F  1903               	skipnz
  3124  0280  0AF3               	incf	___awdiv@dividend+1,f
  3125  0281                     l1353:
  3126  0281  3001               	movlw	1
  3127  0282  00F4               	movwf	??___awdiv
  3128  0283  0874               	movf	??___awdiv,w
  3129  0284  06F6               	xorwf	___awdiv@sign,f
  3130  0285                     l1355:
  3131  0285  01F7               	clrf	___awdiv@quotient
  3132  0286  01F8               	clrf	___awdiv@quotient+1
  3133  0287                     l1357:
  3134  0287  0870               	movf	___awdiv@divisor,w
  3135  0288  0471               	iorwf	___awdiv@divisor+1,w
  3136  0289  1903               	btfsc	3,2
  3137  028A  2A8C               	goto	u1071
  3138  028B  2A8D               	goto	u1070
  3139  028C                     u1071:
  3140  028C  2ABC               	goto	l1377
  3141  028D                     u1070:
  3142  028D                     l1359:
  3143  028D  01F5               	clrf	___awdiv@counter
  3144  028E  0AF5               	incf	___awdiv@counter,f
  3145  028F  2A99               	goto	l1365
  3146  0290                     l1361:
  3147  0290  3001               	movlw	1
  3148  0291                     u1085:
  3149  0291  35F0               	lslf	___awdiv@divisor,f
  3150  0292  0DF1               	rlf	___awdiv@divisor+1,f
  3151  0293  0B89               	decfsz	9,f
  3152  0294  2A91               	goto	u1085
  3153  0295                     l1363:
  3154  0295  3001               	movlw	1
  3155  0296  00F4               	movwf	??___awdiv
  3156  0297  0874               	movf	??___awdiv,w
  3157  0298  07F5               	addwf	___awdiv@counter,f
  3158  0299                     l1365:
  3159  0299  1FF1               	btfss	___awdiv@divisor+1,7
  3160  029A  2A9C               	goto	u1091
  3161  029B  2A9D               	goto	u1090
  3162  029C                     u1091:
  3163  029C  2A90               	goto	l1361
  3164  029D                     u1090:
  3165  029D                     l1367:
  3166  029D  3001               	movlw	1
  3167  029E                     u1105:
  3168  029E  35F7               	lslf	___awdiv@quotient,f
  3169  029F  0DF8               	rlf	___awdiv@quotient+1,f
  3170  02A0  0B89               	decfsz	9,f
  3171  02A1  2A9E               	goto	u1105
  3172  02A2  0871               	movf	___awdiv@divisor+1,w
  3173  02A3  0273               	subwf	___awdiv@dividend+1,w
  3174  02A4  1D03               	skipz
  3175  02A5  2AA8               	goto	u1115
  3176  02A6  0870               	movf	___awdiv@divisor,w
  3177  02A7  0272               	subwf	___awdiv@dividend,w
  3178  02A8                     u1115:
  3179  02A8  1C03               	skipc
  3180  02A9  2AAB               	goto	u1111
  3181  02AA  2AAC               	goto	u1110
  3182  02AB                     u1111:
  3183  02AB  2AB1               	goto	l1373
  3184  02AC                     u1110:
  3185  02AC                     l1369:
  3186  02AC  0870               	movf	___awdiv@divisor,w
  3187  02AD  02F2               	subwf	___awdiv@dividend,f
  3188  02AE  0871               	movf	___awdiv@divisor+1,w
  3189  02AF  3BF3               	subwfb	___awdiv@dividend+1,f
  3190  02B0                     l1371:
  3191  02B0  1477               	bsf	___awdiv@quotient,0
  3192  02B1                     l1373:
  3193  02B1  3001               	movlw	1
  3194  02B2                     u1125:
  3195  02B2  36F1               	lsrf	___awdiv@divisor+1,f
  3196  02B3  0CF0               	rrf	___awdiv@divisor,f
  3197  02B4  0B89               	decfsz	9,f
  3198  02B5  2AB2               	goto	u1125
  3199  02B6                     l1375:
  3200  02B6  3001               	movlw	1
  3201  02B7  02F5               	subwf	___awdiv@counter,f
  3202  02B8  1D03               	btfss	3,2
  3203  02B9  2ABB               	goto	u1131
  3204  02BA  2ABC               	goto	u1130
  3205  02BB                     u1131:
  3206  02BB  2A9D               	goto	l1367
  3207  02BC                     u1130:
  3208  02BC                     l1377:
  3209  02BC  0876               	movf	___awdiv@sign,w
  3210  02BD  1903               	btfsc	3,2
  3211  02BE  2AC0               	goto	u1141
  3212  02BF  2AC1               	goto	u1140
  3213  02C0                     u1141:
  3214  02C0  2AC6               	goto	l1381
  3215  02C1                     u1140:
  3216  02C1                     l1379:
  3217  02C1  09F7               	comf	___awdiv@quotient,f
  3218  02C2  09F8               	comf	___awdiv@quotient+1,f
  3219  02C3  0AF7               	incf	___awdiv@quotient,f
  3220  02C4  1903               	skipnz
  3221  02C5  0AF8               	incf	___awdiv@quotient+1,f
  3222  02C6                     l1381:
  3223  02C6  0878               	movf	___awdiv@quotient+1,w
  3224  02C7  00F1               	movwf	?___awdiv+1
  3225  02C8  0877               	movf	___awdiv@quotient,w
  3226  02C9  00F0               	movwf	?___awdiv
  3227  02CA                     l472:
  3228  02CA  0008               	return
  3229  02CB                     __end_of___awdiv:
  3230                           
  3231                           	psect	text10
  3232  014C                     __ptext10:	
  3233 ;; *************** function _cfg_pwm *****************
  3234 ;; Defined at:
  3235 ;;		line 90 in file "C:/Users/rocke/Desktop/PIC16-PTS/main.c"
  3236 ;; Parameters:    Size  Location     Type
  3237 ;;		None
  3238 ;; Auto vars:     Size  Location     Type
  3239 ;;		None
  3240 ;; Return value:  Size  Location     Type
  3241 ;;                  1    wreg      void 
  3242 ;; Registers used:
  3243 ;;		wreg
  3244 ;; Tracked objects:
  3245 ;;		On entry : 0/0
  3246 ;;		On exit  : 0/0
  3247 ;;		Unchanged: 0/0
  3248 ;; Data sizes:     COMMON   BANK0   BANK1   BANK2   BANK3   BANK4   BANK5   BANK6   BANK7   BANK8   BANK9  BANK10  BANK1
      +1  BANK12  BANK13  BANK14  BANK15  BANK16  BANK17  BANK18  BANK19  BANK20  BANK21  BANK22  BANK23  BANK24  BANK25  BANK2
      +6  BANK27  BANK28  BANK29  BANK30  BANK31  BANK32  BANK33  BANK34  BANK35  BANK36  BANK37  BANK38  BANK39  BANK40  BANK4
      +1  BANK42  BANK43  BANK44  BANK45  BANK46  BANK47  BANK48  BANK49  BANK50
  3249 ;;      Params:         0       0       0       0       0       0       0       0       0       0       0       0       
      +0       0       0       0       0       0       0       0       0       0       0       0       0       0       0       
      +0       0       0       0       0       0       0       0       0       0       0       0       0       0       0       
      +0       0       0       0       0       0       0       0       0       0
  3250 ;;      Locals:         0       0       0       0       0       0       0       0       0       0       0       0       
      +0       0       0       0       0       0       0       0       0       0       0       0       0       0       0       
      +0       0       0       0       0       0       0       0       0       0       0       0       0       0       0       
      +0       0       0       0       0       0       0       0       0       0
  3251 ;;      Temps:          0       0       0       0       0       0       0       0       0       0       0       0       
      +0       0       0       0       0       0       0       0       0       0       0       0       0       0       0       
      +0       0       0       0       0       0       0       0       0       0       0       0       0       0       0       
      +0       0       0       0       0       0       0       0       0       0
  3252 ;;      Totals:         0       0       0       0       0       0       0       0       0       0       0       0       
      +0       0       0       0       0       0       0       0       0       0       0       0       0       0       0       
      +0       0       0       0       0       0       0       0       0       0       0       0       0       0       0       
      +0       0       0       0       0       0       0       0       0       0
  3253 ;;Total ram usage:        0 bytes
  3254 ;; Hardware stack levels used: 1
  3255 ;; This function calls:
  3256 ;;		Nothing
  3257 ;; This function is called by:
  3258 ;;		_main
  3259 ;; This function uses a non-reentrant model
  3260 ;;
  3261                           
  3262                           
  3263                           ;psect for function _cfg_pwm
  3264  014C                     _cfg_pwm:
  3265  014C                     l1457:	
  3266                           ;incstack = 0
  3267                           ; Regs used in _cfg_pwm: [wreg]
  3268                           
  3269                           
  3270                           ;C:/Users/rocke/Desktop/PIC16-PTS/main.c: 92:     TRISAbits.TRISA0 = 1;
  3271  014C  0140               	movlb	0	; select bank0
  3272  014D  1411               	bsf	17,0	;volatile
  3273                           
  3274                           ;C:/Users/rocke/Desktop/PIC16-PTS/main.c: 93:     TRISAbits.TRISA1 = 1;
  3275  014E  1491               	bsf	17,1	;volatile
  3276                           
  3277                           ;C:/Users/rocke/Desktop/PIC16-PTS/main.c: 94:     TRISAbits.TRISA2 = 1;
  3278  014F  1511               	bsf	17,2	;volatile
  3279                           
  3280                           ;C:/Users/rocke/Desktop/PIC16-PTS/main.c: 95:     TRISAbits.TRISA3 = 1;
  3281  0150  1591               	bsf	17,3	;volatile
  3282                           
  3283                           ;C:/Users/rocke/Desktop/PIC16-PTS/main.c: 97:     ANSELAbits.ANSA0 = 0;
  3284  0151  017E               	movlb	62	; select bank62
  3285  0152  1038               	bcf	56,0	;volatile
  3286                           
  3287                           ;C:/Users/rocke/Desktop/PIC16-PTS/main.c: 98:     ANSELAbits.ANSA1 = 0;
  3288  0153  10B8               	bcf	56,1	;volatile
  3289                           
  3290                           ;C:/Users/rocke/Desktop/PIC16-PTS/main.c: 99:     ANSELAbits.ANSA2 = 0;
  3291  0154  1138               	bcf	56,2	;volatile
  3292                           
  3293                           ;C:/Users/rocke/Desktop/PIC16-PTS/main.c: 100:     ANSELAbits.ANSA3 = 0;
  3294  0155  11B8               	bcf	56,3	;volatile
  3295                           
  3296                           ;C:/Users/rocke/Desktop/PIC16-PTS/main.c: 102:     TRISBbits.TRISB5 = 0;
  3297  0156  0140               	movlb	0	; select bank0
  3298  0157  1292               	bcf	18,5	;volatile
  3299                           
  3300                           ;C:/Users/rocke/Desktop/PIC16-PTS/main.c: 103:     ANSELBbits.ANSB5 = 0;
  3301  0158  017E               	movlb	62	; select bank62
  3302  0159  12C3               	bcf	67,5	;volatile
  3303  015A                     l1459:
  3304                           
  3305                           ;C:/Users/rocke/Desktop/PIC16-PTS/main.c: 104:     RB5PPS = 0x0A;
  3306  015A  300A               	movlw	10
  3307  015B  009D               	movwf	29	;volatile
  3308                           
  3309                           ;C:/Users/rocke/Desktop/PIC16-PTS/main.c: 105:     CCP2CON = 0x9F;
  3310  015C  309F               	movlw	159
  3311  015D  0146               	movlb	6	; select bank6
  3312  015E  0092               	movwf	18	;volatile
  3313                           
  3314                           ;C:/Users/rocke/Desktop/PIC16-PTS/main.c: 106:     CCPTMRS0 = 0x05;
  3315  015F  3005               	movlw	5
  3316  0160  0144               	movlb	4	; select bank4
  3317  0161  009E               	movwf	30	;volatile
  3318                           
  3319                           ;C:/Users/rocke/Desktop/PIC16-PTS/main.c: 107:     PR2 = 19;
  3320  0162  3013               	movlw	19
  3321  0163  0145               	movlb	5	; select bank5
  3322  0164  008D               	movwf	13	;volatile
  3323                           
  3324                           ;C:/Users/rocke/Desktop/PIC16-PTS/main.c: 108:     CCPR2L = 0xFF;
  3325  0165  30FF               	movlw	255
  3326  0166  0146               	movlb	6	; select bank6
  3327  0167  0090               	movwf	16	;volatile
  3328                           
  3329                           ;C:/Users/rocke/Desktop/PIC16-PTS/main.c: 109:     CCPR2H = 0xFF;
  3330  0168  30FF               	movlw	255
  3331  0169  0091               	movwf	17	;volatile
  3332                           
  3333                           ;C:/Users/rocke/Desktop/PIC16-PTS/main.c: 110:     T2CLKCON = 0x01;
  3334  016A  3001               	movlw	1
  3335  016B  0145               	movlb	5	; select bank5
  3336  016C  0090               	movwf	16	;volatile
  3337                           
  3338                           ;C:/Users/rocke/Desktop/PIC16-PTS/main.c: 111:     T2CON = 0xF0;
  3339  016D  30F0               	movlw	240
  3340  016E  008E               	movwf	14	;volatile
  3341  016F                     l78:
  3342  016F  0008               	return
  3343  0170                     __end_of_cfg_pwm:
  3344                           
  3345                           	psect	text11
  3346  00C8                     __ptext11:	
  3347 ;; *************** function _cfg_eusart *****************
  3348 ;; Defined at:
  3349 ;;		line 69 in file "C:/Users/rocke/Desktop/PIC16-PTS/main.c"
  3350 ;; Parameters:    Size  Location     Type
  3351 ;;		None
  3352 ;; Auto vars:     Size  Location     Type
  3353 ;;		None
  3354 ;; Return value:  Size  Location     Type
  3355 ;;                  1    wreg      void 
  3356 ;; Registers used:
  3357 ;;		wreg, status,2
  3358 ;; Tracked objects:
  3359 ;;		On entry : 0/0
  3360 ;;		On exit  : 0/0
  3361 ;;		Unchanged: 0/0
  3362 ;; Data sizes:     COMMON   BANK0   BANK1   BANK2   BANK3   BANK4   BANK5   BANK6   BANK7   BANK8   BANK9  BANK10  BANK1
      +1  BANK12  BANK13  BANK14  BANK15  BANK16  BANK17  BANK18  BANK19  BANK20  BANK21  BANK22  BANK23  BANK24  BANK25  BANK2
      +6  BANK27  BANK28  BANK29  BANK30  BANK31  BANK32  BANK33  BANK34  BANK35  BANK36  BANK37  BANK38  BANK39  BANK40  BANK4
      +1  BANK42  BANK43  BANK44  BANK45  BANK46  BANK47  BANK48  BANK49  BANK50
  3363 ;;      Params:         0       0       0       0       0       0       0       0       0       0       0       0       
      +0       0       0       0       0       0       0       0       0       0       0       0       0       0       0       
      +0       0       0       0       0       0       0       0       0       0       0       0       0       0       0       
      +0       0       0       0       0       0       0       0       0       0
  3364 ;;      Locals:         0       0       0       0       0       0       0       0       0       0       0       0       
      +0       0       0       0       0       0       0       0       0       0       0       0       0       0       0       
      +0       0       0       0       0       0       0       0       0       0       0       0       0       0       0       
      +0       0       0       0       0       0       0       0       0       0
  3365 ;;      Temps:          0       0       0       0       0       0       0       0       0       0       0       0       
      +0       0       0       0       0       0       0       0       0       0       0       0       0       0       0       
      +0       0       0       0       0       0       0       0       0       0       0       0       0       0       0       
      +0       0       0       0       0       0       0       0       0       0
  3366 ;;      Totals:         0       0       0       0       0       0       0       0       0       0       0       0       
      +0       0       0       0       0       0       0       0       0       0       0       0       0       0       0       
      +0       0       0       0       0       0       0       0       0       0       0       0       0       0       0       
      +0       0       0       0       0       0       0       0       0       0
  3367 ;;Total ram usage:        0 bytes
  3368 ;; Hardware stack levels used: 1
  3369 ;; This function calls:
  3370 ;;		Nothing
  3371 ;; This function is called by:
  3372 ;;		_main
  3373 ;; This function uses a non-reentrant model
  3374 ;;
  3375                           
  3376                           
  3377                           ;psect for function _cfg_eusart
  3378  00C8                     _cfg_eusart:
  3379  00C8                     l1437:	
  3380                           ;incstack = 0
  3381                           ; Regs used in _cfg_eusart: [wreg+status,2]
  3382                           
  3383                           
  3384                           ;C:/Users/rocke/Desktop/PIC16-PTS/main.c: 71:     TRISCbits.TRISC6 = 0;
  3385  00C8  0140               	movlb	0	; select bank0
  3386  00C9  1313               	bcf	19,6	;volatile
  3387                           
  3388                           ;C:/Users/rocke/Desktop/PIC16-PTS/main.c: 72:     ANSELCbits.ANSC6 = 0;
  3389  00CA  017E               	movlb	62	; select bank62
  3390  00CB  134E               	bcf	78,6	;volatile
  3391  00CC                     l1439:
  3392                           
  3393                           ;C:/Users/rocke/Desktop/PIC16-PTS/main.c: 73:     RC6PPS = 0x10;
  3394  00CC  3010               	movlw	16
  3395  00CD  00A6               	movwf	38	;volatile
  3396  00CE                     l1441:
  3397                           
  3398                           ;C:/Users/rocke/Desktop/PIC16-PTS/main.c: 75:     SP1BRGH = 0x00;
  3399  00CE  0142               	movlb	2	; select bank2
  3400  00CF  019C               	clrf	28	;volatile
  3401  00D0                     l1443:
  3402                           
  3403                           ;C:/Users/rocke/Desktop/PIC16-PTS/main.c: 76:     SP1BRGL = 0b00011001;
  3404  00D0  3019               	movlw	25
  3405  00D1  009B               	movwf	27	;volatile
  3406  00D2                     l1445:
  3407                           
  3408                           ;C:/Users/rocke/Desktop/PIC16-PTS/main.c: 77:     BAUD1CONbits.BRG16 = 0;
  3409  00D2  119F               	bcf	31,3	;volatile
  3410  00D3                     l1447:
  3411                           
  3412                           ;C:/Users/rocke/Desktop/PIC16-PTS/main.c: 79:     TX1STAbits.BRGH = 0;
  3413  00D3  111E               	bcf	30,2	;volatile
  3414  00D4                     l1449:
  3415                           
  3416                           ;C:/Users/rocke/Desktop/PIC16-PTS/main.c: 80:     TX1STAbits.SYNC = 0;
  3417  00D4  121E               	bcf	30,4	;volatile
  3418  00D5                     l1451:
  3419                           
  3420                           ;C:/Users/rocke/Desktop/PIC16-PTS/main.c: 82:     RC1STAbits.SPEN = 1;
  3421  00D5  179D               	bsf	29,7	;volatile
  3422  00D6                     l1453:
  3423                           
  3424                           ;C:/Users/rocke/Desktop/PIC16-PTS/main.c: 84:     TX1STAbits.TXEN = 1;
  3425  00D6  169E               	bsf	30,5	;volatile
  3426  00D7                     l1455:
  3427                           
  3428                           ;C:/Users/rocke/Desktop/PIC16-PTS/main.c: 85:     TX1STAbits.TX9 = 0;
  3429  00D7  131E               	bcf	30,6	;volatile
  3430  00D8                     l75:
  3431  00D8  0008               	return
  3432  00D9                     __end_of_cfg_eusart:
  3433                           
  3434                           	psect	text12
  3435  0195                     __ptext12:	
  3436 ;; *************** function _calcAngle *****************
  3437 ;; Defined at:
  3438 ;;		line 162 in file "C:/Users/rocke/Desktop/PIC16-PTS/main.c"
  3439 ;; Parameters:    Size  Location     Type
  3440 ;;		None
  3441 ;; Auto vars:     Size  Location     Type
  3442 ;;  angle           2    2[COMMON] int 
  3443 ;; Return value:  Size  Location     Type
  3444 ;;                  2    0[COMMON] int 
  3445 ;; Registers used:
  3446 ;;		wreg, status,2
  3447 ;; Tracked objects:
  3448 ;;		On entry : 0/0
  3449 ;;		On exit  : 0/0
  3450 ;;		Unchanged: 0/0
  3451 ;; Data sizes:     COMMON   BANK0   BANK1   BANK2   BANK3   BANK4   BANK5   BANK6   BANK7   BANK8   BANK9  BANK10  BANK1
      +1  BANK12  BANK13  BANK14  BANK15  BANK16  BANK17  BANK18  BANK19  BANK20  BANK21  BANK22  BANK23  BANK24  BANK25  BANK2
      +6  BANK27  BANK28  BANK29  BANK30  BANK31  BANK32  BANK33  BANK34  BANK35  BANK36  BANK37  BANK38  BANK39  BANK40  BANK4
      +1  BANK42  BANK43  BANK44  BANK45  BANK46  BANK47  BANK48  BANK49  BANK50
  3452 ;;      Params:         2       0       0       0       0       0       0       0       0       0       0       0       
      +0       0       0       0       0       0       0       0       0       0       0       0       0       0       0       
      +0       0       0       0       0       0       0       0       0       0       0       0       0       0       0       
      +0       0       0       0       0       0       0       0       0       0
  3453 ;;      Locals:         2       0       0       0       0       0       0       0       0       0       0       0       
      +0       0       0       0       0       0       0       0       0       0       0       0       0       0       0       
      +0       0       0       0       0       0       0       0       0       0       0       0       0       0       0       
      +0       0       0       0       0       0       0       0       0       0
  3454 ;;      Temps:          0       0       0       0       0       0       0       0       0       0       0       0       
      +0       0       0       0       0       0       0       0       0       0       0       0       0       0       0       
      +0       0       0       0       0       0       0       0       0       0       0       0       0       0       0       
      +0       0       0       0       0       0       0       0       0       0
  3455 ;;      Totals:         4       0       0       0       0       0       0       0       0       0       0       0       
      +0       0       0       0       0       0       0       0       0       0       0       0       0       0       0       
      +0       0       0       0       0       0       0       0       0       0       0       0       0       0       0       
      +0       0       0       0       0       0       0       0       0       0
  3456 ;;Total ram usage:        4 bytes
  3457 ;; Hardware stack levels used: 1
  3458 ;; This function calls:
  3459 ;;		Nothing
  3460 ;; This function is called by:
  3461 ;;		_main
  3462 ;; This function uses a non-reentrant model
  3463 ;;
  3464                           
  3465                           
  3466                           ;psect for function _calcAngle
  3467  0195                     _calcAngle:
  3468  0195                     l1487:	
  3469                           ;incstack = 0
  3470                           ; Regs used in _calcAngle: [wreg+status,2]
  3471                           
  3472  0195                     l1489:
  3473                           
  3474                           ;C:/Users/rocke/Desktop/PIC16-PTS/main.c: 168:     if((RB1 == 1) && (RB0 == 0))
  3475  0195  0140               	movlb	0	; select bank0
  3476  0196  1C8D               	btfss	13,1	;volatile
  3477  0197  2999               	goto	u1281
  3478  0198  299A               	goto	u1280
  3479  0199                     u1281:
  3480  0199  29A3               	goto	l96
  3481  019A                     u1280:
  3482  019A                     l1491:
  3483  019A  180D               	btfsc	13,0	;volatile
  3484  019B  299D               	goto	u1291
  3485  019C  299E               	goto	u1290
  3486  019D                     u1291:
  3487  019D  29A3               	goto	l96
  3488  019E                     u1290:
  3489  019E                     l1493:
  3490                           
  3491                           ;C:/Users/rocke/Desktop/PIC16-PTS/main.c: 169:     {;C:/Users/rocke/Desktop/PIC16-PTS/ma
      +                          in.c: 171:         angle = 90;
  3492  019E  305A               	movlw	90
  3493  019F  00F2               	movwf	calcAngle@angle
  3494  01A0  3000               	movlw	0
  3495  01A1  00F3               	movwf	calcAngle@angle+1
  3496                           
  3497                           ;C:/Users/rocke/Desktop/PIC16-PTS/main.c: 172:     }
  3498  01A2  29BF               	goto	l1505
  3499  01A3                     l96:	
  3500                           ;C:/Users/rocke/Desktop/PIC16-PTS/main.c: 173:     else if((RB1 == 1) && (RB0 == 1))
  3501                           
  3502  01A3  1C8D               	btfss	13,1	;volatile
  3503  01A4  29A6               	goto	u1301
  3504  01A5  29A7               	goto	u1300
  3505  01A6                     u1301:
  3506  01A6  29B0               	goto	l98
  3507  01A7                     u1300:
  3508  01A7                     l1495:
  3509  01A7  1C0D               	btfss	13,0	;volatile
  3510  01A8  29AA               	goto	u1311
  3511  01A9  29AB               	goto	u1310
  3512  01AA                     u1311:
  3513  01AA  29B0               	goto	l98
  3514  01AB                     u1310:
  3515  01AB                     l1497:
  3516                           
  3517                           ;C:/Users/rocke/Desktop/PIC16-PTS/main.c: 174:     {;C:/Users/rocke/Desktop/PIC16-PTS/ma
      +                          in.c: 176:         angle = 180;
  3518  01AB  30B4               	movlw	180
  3519  01AC  00F2               	movwf	calcAngle@angle
  3520  01AD  3000               	movlw	0
  3521  01AE  00F3               	movwf	calcAngle@angle+1
  3522                           
  3523                           ;C:/Users/rocke/Desktop/PIC16-PTS/main.c: 177:     }
  3524  01AF  29BF               	goto	l1505
  3525  01B0                     l98:	
  3526                           ;C:/Users/rocke/Desktop/PIC16-PTS/main.c: 178:     else if((RB1 == 0) && (RB0 ==1))
  3527                           
  3528  01B0  188D               	btfsc	13,1	;volatile
  3529  01B1  29B3               	goto	u1321
  3530  01B2  29B4               	goto	u1320
  3531  01B3                     u1321:
  3532  01B3  29BD               	goto	l1503
  3533  01B4                     u1320:
  3534  01B4                     l1499:
  3535  01B4  1C0D               	btfss	13,0	;volatile
  3536  01B5  29B7               	goto	u1331
  3537  01B6  29B8               	goto	u1330
  3538  01B7                     u1331:
  3539  01B7  29BD               	goto	l1503
  3540  01B8                     u1330:
  3541  01B8                     l1501:
  3542                           
  3543                           ;C:/Users/rocke/Desktop/PIC16-PTS/main.c: 179:     {;C:/Users/rocke/Desktop/PIC16-PTS/ma
      +                          in.c: 181:         angle = 270;
  3544  01B8  300E               	movlw	14
  3545  01B9  00F2               	movwf	calcAngle@angle
  3546  01BA  3001               	movlw	1
  3547  01BB  00F3               	movwf	calcAngle@angle+1
  3548                           
  3549                           ;C:/Users/rocke/Desktop/PIC16-PTS/main.c: 182:     }
  3550  01BC  29BF               	goto	l1505
  3551  01BD                     l1503:
  3552                           
  3553                           ;C:/Users/rocke/Desktop/PIC16-PTS/main.c: 184:     {;C:/Users/rocke/Desktop/PIC16-PTS/ma
      +                          in.c: 186:         angle = 0;
  3554  01BD  01F2               	clrf	calcAngle@angle
  3555  01BE  01F3               	clrf	calcAngle@angle+1
  3556  01BF                     l1505:
  3557                           
  3558                           ;C:/Users/rocke/Desktop/PIC16-PTS/main.c: 189:     return angle;
  3559  01BF  0873               	movf	calcAngle@angle+1,w
  3560  01C0  00F1               	movwf	?_calcAngle+1
  3561  01C1  0872               	movf	calcAngle@angle,w
  3562  01C2  00F0               	movwf	?_calcAngle
  3563  01C3                     l102:
  3564  01C3  0008               	return
  3565  01C4                     __end_of_calcAngle:
  3566                           
  3567                           	psect	text13
  3568  03DB                     __ptext13:	
  3569 ;; *************** function ___xxtofl *****************
  3570 ;; Defined at:
  3571 ;;		line 10 in file "C:\Program Files\Microchip\xc8\v2.32\pic\sources\c99\common\xxtofl.c"
  3572 ;; Parameters:    Size  Location     Type
  3573 ;;  sign            1    wreg     unsigned char 
  3574 ;;  val             4    0[COMMON] long 
  3575 ;; Auto vars:     Size  Location     Type
  3576 ;;  sign            1    8[COMMON] unsigned char 
  3577 ;;  arg             4   10[COMMON] unsigned long 
  3578 ;;  exp             1    9[COMMON] unsigned char 
  3579 ;; Return value:  Size  Location     Type
  3580 ;;                  4    0[COMMON] unsigned char 
  3581 ;; Registers used:
  3582 ;;		wreg, status,2, status,0
  3583 ;; Tracked objects:
  3584 ;;		On entry : 0/0
  3585 ;;		On exit  : 0/0
  3586 ;;		Unchanged: 0/0
  3587 ;; Data sizes:     COMMON   BANK0   BANK1   BANK2   BANK3   BANK4   BANK5   BANK6   BANK7   BANK8   BANK9  BANK10  BANK1
      +1  BANK12  BANK13  BANK14  BANK15  BANK16  BANK17  BANK18  BANK19  BANK20  BANK21  BANK22  BANK23  BANK24  BANK25  BANK2
      +6  BANK27  BANK28  BANK29  BANK30  BANK31  BANK32  BANK33  BANK34  BANK35  BANK36  BANK37  BANK38  BANK39  BANK40  BANK4
      +1  BANK42  BANK43  BANK44  BANK45  BANK46  BANK47  BANK48  BANK49  BANK50
  3588 ;;      Params:         4       0       0       0       0       0       0       0       0       0       0       0       
      +0       0       0       0       0       0       0       0       0       0       0       0       0       0       0       
      +0       0       0       0       0       0       0       0       0       0       0       0       0       0       0       
      +0       0       0       0       0       0       0       0       0       0
  3589 ;;      Locals:         6       0       0       0       0       0       0       0       0       0       0       0       
      +0       0       0       0       0       0       0       0       0       0       0       0       0       0       0       
      +0       0       0       0       0       0       0       0       0       0       0       0       0       0       0       
      +0       0       0       0       0       0       0       0       0       0
  3590 ;;      Temps:          4       0       0       0       0       0       0       0       0       0       0       0       
      +0       0       0       0       0       0       0       0       0       0       0       0       0       0       0       
      +0       0       0       0       0       0       0       0       0       0       0       0       0       0       0       
      +0       0       0       0       0       0       0       0       0       0
  3591 ;;      Totals:        14       0       0       0       0       0       0       0       0       0       0       0       
      +0       0       0       0       0       0       0       0       0       0       0       0       0       0       0       
      +0       0       0       0       0       0       0       0       0       0       0       0       0       0       0       
      +0       0       0       0       0       0       0       0       0       0
  3592 ;;Total ram usage:       14 bytes
  3593 ;; Hardware stack levels used: 1
  3594 ;; This function calls:
  3595 ;;		Nothing
  3596 ;; This function is called by:
  3597 ;;		_main
  3598 ;; This function uses a non-reentrant model
  3599 ;;
  3600                           
  3601                           
  3602                           ;psect for function ___xxtofl
  3603  03DB                     ___xxtofl:
  3604                           
  3605                           ;incstack = 0
  3606                           ; Regs used in ___xxtofl: [wreg+status,2+status,0]
  3607                           ;___xxtofl@sign stored from wreg
  3608  03DB  00F8               	movwf	___xxtofl@sign
  3609  03DC                     l1763:
  3610  03DC  0878               	movf	___xxtofl@sign,w
  3611  03DD  1903               	btfsc	3,2
  3612  03DE  2BE0               	goto	u1811
  3613  03DF  2BE1               	goto	u1810
  3614  03E0                     u1811:
  3615  03E0  2BF5               	goto	l1769
  3616  03E1                     u1810:
  3617  03E1                     l1765:
  3618  03E1  1FF3               	btfss	___xxtofl@val+3,7
  3619  03E2  2BE4               	goto	u1821
  3620  03E3  2BE5               	goto	u1820
  3621  03E4                     u1821:
  3622  03E4  2BF5               	goto	l1769
  3623  03E5                     u1820:
  3624  03E5                     l1767:
  3625  03E5  0970               	comf	___xxtofl@val,w
  3626  03E6  00FA               	movwf	___xxtofl@arg
  3627  03E7  0971               	comf	___xxtofl@val+1,w
  3628  03E8  00FB               	movwf	___xxtofl@arg+1
  3629  03E9  0972               	comf	___xxtofl@val+2,w
  3630  03EA  00FC               	movwf	___xxtofl@arg+2
  3631  03EB  0973               	comf	___xxtofl@val+3,w
  3632  03EC  00FD               	movwf	___xxtofl@arg+3
  3633  03ED  0AFA               	incf	___xxtofl@arg,f
  3634  03EE  1903               	skipnz
  3635  03EF  0AFB               	incf	___xxtofl@arg+1,f
  3636  03F0  1903               	skipnz
  3637  03F1  0AFC               	incf	___xxtofl@arg+2,f
  3638  03F2  1903               	skipnz
  3639  03F3  0AFD               	incf	___xxtofl@arg+3,f
  3640  03F4  2BFD               	goto	l760
  3641  03F5                     l1769:
  3642  03F5  0873               	movf	___xxtofl@val+3,w
  3643  03F6  00FD               	movwf	___xxtofl@arg+3
  3644  03F7  0872               	movf	___xxtofl@val+2,w
  3645  03F8  00FC               	movwf	___xxtofl@arg+2
  3646  03F9  0871               	movf	___xxtofl@val+1,w
  3647  03FA  00FB               	movwf	___xxtofl@arg+1
  3648  03FB  0870               	movf	___xxtofl@val,w
  3649  03FC  00FA               	movwf	___xxtofl@arg
  3650  03FD                     l760:
  3651  03FD  0873               	movf	___xxtofl@val+3,w
  3652  03FE  0472               	iorwf	___xxtofl@val+2,w
  3653  03FF  0471               	iorwf	___xxtofl@val+1,w
  3654  0400  0470               	iorwf	___xxtofl@val,w
  3655  0401  1D03               	skipz
  3656  0402  2C04               	goto	u1831
  3657  0403  2C05               	goto	u1830
  3658  0404                     u1831:
  3659  0404  2C0E               	goto	l1775
  3660  0405                     u1830:
  3661  0405                     l1771:
  3662  0405  3000               	movlw	0
  3663  0406  00F3               	movwf	?___xxtofl+3
  3664  0407  3000               	movlw	0
  3665  0408  00F2               	movwf	?___xxtofl+2
  3666  0409  3000               	movlw	0
  3667  040A  00F1               	movwf	?___xxtofl+1
  3668  040B  3000               	movlw	0
  3669  040C  00F0               	movwf	?___xxtofl
  3670  040D  2C86               	goto	l762
  3671  040E                     l1775:
  3672  040E  3096               	movlw	150
  3673  040F  00F4               	movwf	??___xxtofl
  3674  0410  0874               	movf	??___xxtofl,w
  3675  0411  00F9               	movwf	___xxtofl@exp
  3676  0412  2C1E               	goto	l1779
  3677  0413                     l1777:
  3678  0413  3001               	movlw	1
  3679  0414  00F4               	movwf	??___xxtofl
  3680  0415  0874               	movf	??___xxtofl,w
  3681  0416  07F9               	addwf	___xxtofl@exp,f
  3682  0417  3001               	movlw	1
  3683  0418                     u1845:
  3684  0418  36FD               	lsrf	___xxtofl@arg+3,f
  3685  0419  0CFC               	rrf	___xxtofl@arg+2,f
  3686  041A  0CFB               	rrf	___xxtofl@arg+1,f
  3687  041B  0CFA               	rrf	___xxtofl@arg,f
  3688  041C  0B89               	decfsz	9,f
  3689  041D  2C18               	goto	u1845
  3690  041E                     l1779:
  3691  041E  30FE               	movlw	254
  3692  041F  057D               	andwf	___xxtofl@arg+3,w
  3693  0420  1D03               	btfss	3,2
  3694  0421  2C23               	goto	u1851
  3695  0422  2C24               	goto	u1850
  3696  0423                     u1851:
  3697  0423  2C13               	goto	l1777
  3698  0424                     u1850:
  3699  0424  2C38               	goto	l766
  3700  0425                     l1781:
  3701  0425  3001               	movlw	1
  3702  0426  00F4               	movwf	??___xxtofl
  3703  0427  0874               	movf	??___xxtofl,w
  3704  0428  07F9               	addwf	___xxtofl@exp,f
  3705  0429                     l1783:
  3706  0429  3001               	movlw	1
  3707  042A  07FA               	addwf	___xxtofl@arg,f
  3708  042B  3000               	movlw	0
  3709  042C  3DFB               	addwfc	___xxtofl@arg+1,f
  3710  042D  3000               	movlw	0
  3711  042E  3DFC               	addwfc	___xxtofl@arg+2,f
  3712  042F  3000               	movlw	0
  3713  0430  3DFD               	addwfc	___xxtofl@arg+3,f
  3714  0431                     l1785:
  3715  0431  3001               	movlw	1
  3716  0432                     u1865:
  3717  0432  36FD               	lsrf	___xxtofl@arg+3,f
  3718  0433  0CFC               	rrf	___xxtofl@arg+2,f
  3719  0434  0CFB               	rrf	___xxtofl@arg+1,f
  3720  0435  0CFA               	rrf	___xxtofl@arg,f
  3721  0436  0B89               	decfsz	9,f
  3722  0437  2C32               	goto	u1865
  3723  0438                     l766:
  3724  0438  30FF               	movlw	255
  3725  0439  057D               	andwf	___xxtofl@arg+3,w
  3726  043A  1D03               	btfss	3,2
  3727  043B  2C3D               	goto	u1871
  3728  043C  2C3E               	goto	u1870
  3729  043D                     u1871:
  3730  043D  2C25               	goto	l1781
  3731  043E                     u1870:
  3732  043E  2C48               	goto	l1789
  3733  043F                     l1787:
  3734  043F  3001               	movlw	1
  3735  0440  02F9               	subwf	___xxtofl@exp,f
  3736  0441  3001               	movlw	1
  3737  0442                     u1885:
  3738  0442  35FA               	lslf	___xxtofl@arg,f
  3739  0443  0DFB               	rlf	___xxtofl@arg+1,f
  3740  0444  0DFC               	rlf	___xxtofl@arg+2,f
  3741  0445  0DFD               	rlf	___xxtofl@arg+3,f
  3742  0446  0B89               	decfsz	9,f
  3743  0447  2C42               	goto	u1885
  3744  0448                     l1789:
  3745  0448  1BFC               	btfsc	___xxtofl@arg+2,7
  3746  0449  2C4B               	goto	u1891
  3747  044A  2C4C               	goto	u1890
  3748  044B                     u1891:
  3749  044B  2C52               	goto	l773
  3750  044C                     u1890:
  3751  044C                     l1791:
  3752  044C  3002               	movlw	2
  3753  044D  0279               	subwf	___xxtofl@exp,w
  3754  044E  1803               	skipnc
  3755  044F  2C51               	goto	u1901
  3756  0450  2C52               	goto	u1900
  3757  0451                     u1901:
  3758  0451  2C3F               	goto	l1787
  3759  0452                     u1900:
  3760  0452                     l773:
  3761  0452  1879               	btfsc	___xxtofl@exp,0
  3762  0453  2C55               	goto	u1911
  3763  0454  2C56               	goto	u1910
  3764  0455                     u1911:
  3765  0455  2C5E               	goto	l774
  3766  0456                     u1910:
  3767  0456                     l1793:
  3768  0456  30FF               	movlw	255
  3769  0457  05FA               	andwf	___xxtofl@arg,f
  3770  0458  30FF               	movlw	255
  3771  0459  05FB               	andwf	___xxtofl@arg+1,f
  3772  045A  307F               	movlw	127
  3773  045B  05FC               	andwf	___xxtofl@arg+2,f
  3774  045C  30FF               	movlw	255
  3775  045D  05FD               	andwf	___xxtofl@arg+3,f
  3776  045E                     l774:
  3777  045E  1003               	clrc
  3778  045F  0CF9               	rrf	___xxtofl@exp,f
  3779  0460                     l1795:
  3780  0460  0879               	movf	___xxtofl@exp,w
  3781  0461  00F4               	movwf	??___xxtofl
  3782  0462  01F5               	clrf	??___xxtofl+1
  3783  0463  01F6               	clrf	??___xxtofl+2
  3784  0464  01F7               	clrf	??___xxtofl+3
  3785  0465  3018               	movlw	24
  3786  0466                     u1925:
  3787  0466  35F4               	lslf	??___xxtofl,f
  3788  0467  0DF5               	rlf	??___xxtofl+1,f
  3789  0468  0DF6               	rlf	??___xxtofl+2,f
  3790  0469  0DF7               	rlf	??___xxtofl+3,f
  3791  046A                     u1920:
  3792  046A  0B89               	decfsz	9,f
  3793  046B  2C66               	goto	u1925
  3794  046C  0874               	movf	??___xxtofl,w
  3795  046D  04FA               	iorwf	___xxtofl@arg,f
  3796  046E  0875               	movf	??___xxtofl+1,w
  3797  046F  04FB               	iorwf	___xxtofl@arg+1,f
  3798  0470  0876               	movf	??___xxtofl+2,w
  3799  0471  04FC               	iorwf	___xxtofl@arg+2,f
  3800  0472  0877               	movf	??___xxtofl+3,w
  3801  0473  04FD               	iorwf	___xxtofl@arg+3,f
  3802  0474                     l1797:
  3803  0474  0878               	movf	___xxtofl@sign,w
  3804  0475  1903               	btfsc	3,2
  3805  0476  2C78               	goto	u1931
  3806  0477  2C79               	goto	u1930
  3807  0478                     u1931:
  3808  0478  2C7E               	goto	l1803
  3809  0479                     u1930:
  3810  0479                     l1799:
  3811  0479  1FF3               	btfss	___xxtofl@val+3,7
  3812  047A  2C7C               	goto	u1941
  3813  047B  2C7D               	goto	u1940
  3814  047C                     u1941:
  3815  047C  2C7E               	goto	l1803
  3816  047D                     u1940:
  3817  047D                     l1801:
  3818  047D  17FD               	bsf	___xxtofl@arg+3,7
  3819  047E                     l1803:
  3820  047E  087D               	movf	___xxtofl@arg+3,w
  3821  047F  00F3               	movwf	?___xxtofl+3
  3822  0480  087C               	movf	___xxtofl@arg+2,w
  3823  0481  00F2               	movwf	?___xxtofl+2
  3824  0482  087B               	movf	___xxtofl@arg+1,w
  3825  0483  00F1               	movwf	?___xxtofl+1
  3826  0484  087A               	movf	___xxtofl@arg,w
  3827  0485  00F0               	movwf	?___xxtofl
  3828  0486                     l762:
  3829  0486  0008               	return
  3830  0487                     __end_of___xxtofl:
  3831                           
  3832                           	psect	text14
  3833  02CB                     __ptext14:	
  3834 ;; *************** function ___fltol *****************
  3835 ;; Defined at:
  3836 ;;		line 43 in file "C:\Program Files\Microchip\xc8\v2.32\pic\sources\c99\common\fltol.c"
  3837 ;; Parameters:    Size  Location     Type
  3838 ;;  f1              4   26[BANK0 ] unsigned char 
  3839 ;; Auto vars:     Size  Location     Type
  3840 ;;  exp1            1   36[BANK0 ] unsigned char 
  3841 ;;  sign1           1   35[BANK0 ] unsigned char 
  3842 ;; Return value:  Size  Location     Type
  3843 ;;                  4   26[BANK0 ] long 
  3844 ;; Registers used:
  3845 ;;		wreg, status,2, status,0
  3846 ;; Tracked objects:
  3847 ;;		On entry : 0/0
  3848 ;;		On exit  : 0/0
  3849 ;;		Unchanged: 0/0
  3850 ;; Data sizes:     COMMON   BANK0   BANK1   BANK2   BANK3   BANK4   BANK5   BANK6   BANK7   BANK8   BANK9  BANK10  BANK1
      +1  BANK12  BANK13  BANK14  BANK15  BANK16  BANK17  BANK18  BANK19  BANK20  BANK21  BANK22  BANK23  BANK24  BANK25  BANK2
      +6  BANK27  BANK28  BANK29  BANK30  BANK31  BANK32  BANK33  BANK34  BANK35  BANK36  BANK37  BANK38  BANK39  BANK40  BANK4
      +1  BANK42  BANK43  BANK44  BANK45  BANK46  BANK47  BANK48  BANK49  BANK50
  3851 ;;      Params:         0       4       0       0       0       0       0       0       0       0       0       0       
      +0       0       0       0       0       0       0       0       0       0       0       0       0       0       0       
      +0       0       0       0       0       0       0       0       0       0       0       0       0       0       0       
      +0       0       0       0       0       0       0       0       0       0
  3852 ;;      Locals:         0       2       0       0       0       0       0       0       0       0       0       0       
      +0       0       0       0       0       0       0       0       0       0       0       0       0       0       0       
      +0       0       0       0       0       0       0       0       0       0       0       0       0       0       0       
      +0       0       0       0       0       0       0       0       0       0
  3853 ;;      Temps:          0       5       0       0       0       0       0       0       0       0       0       0       
      +0       0       0       0       0       0       0       0       0       0       0       0       0       0       0       
      +0       0       0       0       0       0       0       0       0       0       0       0       0       0       0       
      +0       0       0       0       0       0       0       0       0       0
  3854 ;;      Totals:         0      11       0       0       0       0       0       0       0       0       0       0       
      +0       0       0       0       0       0       0       0       0       0       0       0       0       0       0       
      +0       0       0       0       0       0       0       0       0       0       0       0       0       0       0       
      +0       0       0       0       0       0       0       0       0       0
  3855 ;;Total ram usage:       11 bytes
  3856 ;; Hardware stack levels used: 1
  3857 ;; This function calls:
  3858 ;;		Nothing
  3859 ;; This function is called by:
  3860 ;;		_main
  3861 ;; This function uses a non-reentrant model
  3862 ;;
  3863                           
  3864                           
  3865                           ;psect for function ___fltol
  3866  02CB                     ___fltol:
  3867  02CB                     l1587:	
  3868                           ;incstack = 0
  3869                           ; Regs used in ___fltol: [wreg+status,2+status,0]
  3870                           
  3871  02CB  1003               	clrc
  3872  02CC  0140               	movlb	0	; select bank0
  3873  02CD  0D3C               	rlf	___fltol@f1+2,w
  3874  02CE  0D3D               	rlf	___fltol@f1+3,w
  3875  02CF  00BE               	movwf	??___fltol
  3876  02D0  083E               	movf	??___fltol,w
  3877  02D1  00C4               	movwf	___fltol@exp1
  3878  02D2  0844               	movf	___fltol@exp1,w
  3879  02D3  1D03               	btfss	3,2
  3880  02D4  2AD6               	goto	u1451
  3881  02D5  2AD7               	goto	u1450
  3882  02D6                     u1451:
  3883  02D6  2AE0               	goto	l1593
  3884  02D7                     u1450:
  3885  02D7                     l1589:
  3886  02D7  3000               	movlw	0
  3887  02D8  00BD               	movwf	?___fltol+3
  3888  02D9  3000               	movlw	0
  3889  02DA  00BC               	movwf	?___fltol+2
  3890  02DB  3000               	movlw	0
  3891  02DC  00BB               	movwf	?___fltol+1
  3892  02DD  3000               	movlw	0
  3893  02DE  00BA               	movwf	?___fltol
  3894  02DF  2B3F               	goto	l513
  3895  02E0                     l1593:
  3896  02E0  083A               	movf	___fltol@f1,w
  3897  02E1  00BE               	movwf	??___fltol
  3898  02E2  083B               	movf	___fltol@f1+1,w
  3899  02E3  00BF               	movwf	??___fltol+1
  3900  02E4  083C               	movf	___fltol@f1+2,w
  3901  02E5  00C0               	movwf	??___fltol+2
  3902  02E6  083D               	movf	___fltol@f1+3,w
  3903  02E7  00C1               	movwf	??___fltol+3
  3904  02E8  301F               	movlw	31
  3905  02E9                     u1465:
  3906  02E9  36C1               	lsrf	??___fltol+3,f
  3907  02EA  0CC0               	rrf	??___fltol+2,f
  3908  02EB  0CBF               	rrf	??___fltol+1,f
  3909  02EC  0CBE               	rrf	??___fltol,f
  3910  02ED                     u1460:
  3911  02ED  0B89               	decfsz	9,f
  3912  02EE  2AE9               	goto	u1465
  3913  02EF  083E               	movf	??___fltol,w
  3914  02F0  00C2               	movwf	??___fltol+4
  3915  02F1  0842               	movf	??___fltol+4,w
  3916  02F2  00C3               	movwf	___fltol@sign1
  3917  02F3                     l1595:
  3918  02F3  17BC               	bsf	___fltol@f1+2,7
  3919  02F4                     l1597:
  3920  02F4  30FF               	movlw	255
  3921  02F5  05BA               	andwf	___fltol@f1,f
  3922  02F6  30FF               	movlw	255
  3923  02F7  05BB               	andwf	___fltol@f1+1,f
  3924  02F8  30FF               	movlw	255
  3925  02F9  05BC               	andwf	___fltol@f1+2,f
  3926  02FA  3000               	movlw	0
  3927  02FB  05BD               	andwf	___fltol@f1+3,f
  3928  02FC                     l1599:
  3929  02FC  3096               	movlw	150
  3930  02FD  02C4               	subwf	___fltol@exp1,f
  3931  02FE                     l1601:
  3932  02FE  1FC4               	btfss	___fltol@exp1,7
  3933  02FF  2B01               	goto	u1471
  3934  0300  2B02               	goto	u1470
  3935  0301                     u1471:
  3936  0301  2B1A               	goto	l1611
  3937  0302                     u1470:
  3938  0302                     l1603:
  3939  0302  0844               	movf	___fltol@exp1,w
  3940  0303  3A80               	xorlw	128
  3941  0304  3E97               	addlw	151
  3942  0305  1803               	skipnc
  3943  0306  2B08               	goto	u1481
  3944  0307  2B09               	goto	u1480
  3945  0308                     u1481:
  3946  0308  2B0A               	goto	l1609
  3947  0309                     u1480:
  3948  0309  2AD7               	goto	l1589
  3949  030A                     l1609:
  3950  030A  3001               	movlw	1
  3951  030B                     u1495:
  3952  030B  36BD               	lsrf	___fltol@f1+3,f
  3953  030C  0CBC               	rrf	___fltol@f1+2,f
  3954  030D  0CBB               	rrf	___fltol@f1+1,f
  3955  030E  0CBA               	rrf	___fltol@f1,f
  3956  030F  0B89               	decfsz	9,f
  3957  0310  2B0B               	goto	u1495
  3958  0311  3001               	movlw	1
  3959  0312  00BE               	movwf	??___fltol
  3960  0313  083E               	movf	??___fltol,w
  3961  0314  07C4               	addwf	___fltol@exp1,f
  3962  0315  1D03               	btfss	3,2
  3963  0316  2B18               	goto	u1501
  3964  0317  2B19               	goto	u1500
  3965  0318                     u1501:
  3966  0318  2B0A               	goto	l1609
  3967  0319                     u1500:
  3968  0319  2B2F               	goto	l1619
  3969  031A                     l1611:
  3970  031A  3020               	movlw	32
  3971  031B  0244               	subwf	___fltol@exp1,w
  3972  031C  1C03               	skipc
  3973  031D  2B1F               	goto	u1511
  3974  031E  2B20               	goto	u1510
  3975  031F                     u1511:
  3976  031F  2B2A               	goto	l520
  3977  0320                     u1510:
  3978  0320  2AD7               	goto	l1589
  3979  0321                     l1617:
  3980  0321  3001               	movlw	1
  3981  0322                     u1525:
  3982  0322  35BA               	lslf	___fltol@f1,f
  3983  0323  0DBB               	rlf	___fltol@f1+1,f
  3984  0324  0DBC               	rlf	___fltol@f1+2,f
  3985  0325  0DBD               	rlf	___fltol@f1+3,f
  3986  0326  0B89               	decfsz	9,f
  3987  0327  2B22               	goto	u1525
  3988  0328  3001               	movlw	1
  3989  0329  02C4               	subwf	___fltol@exp1,f
  3990  032A                     l520:
  3991  032A  0844               	movf	___fltol@exp1,w
  3992  032B  1D03               	btfss	3,2
  3993  032C  2B2E               	goto	u1531
  3994  032D  2B2F               	goto	u1530
  3995  032E                     u1531:
  3996  032E  2B21               	goto	l1617
  3997  032F                     u1530:
  3998  032F                     l1619:
  3999  032F  0843               	movf	___fltol@sign1,w
  4000  0330  1903               	btfsc	3,2
  4001  0331  2B33               	goto	u1541
  4002  0332  2B34               	goto	u1540
  4003  0333                     u1541:
  4004  0333  2B3F               	goto	l523
  4005  0334                     u1540:
  4006  0334                     l1621:
  4007  0334  09BA               	comf	___fltol@f1,f
  4008  0335  09BB               	comf	___fltol@f1+1,f
  4009  0336  09BC               	comf	___fltol@f1+2,f
  4010  0337  09BD               	comf	___fltol@f1+3,f
  4011  0338  0ABA               	incf	___fltol@f1,f
  4012  0339  1903               	skipnz
  4013  033A  0ABB               	incf	___fltol@f1+1,f
  4014  033B  1903               	skipnz
  4015  033C  0ABC               	incf	___fltol@f1+2,f
  4016  033D  1903               	skipnz
  4017  033E  0ABD               	incf	___fltol@f1+3,f
  4018  033F                     l523:
  4019  033F                     l513:
  4020  033F  0008               	return
  4021  0340                     __end_of___fltol:
  4022                           
  4023                           	psect	text15
  4024  059E                     __ptext15:	
  4025 ;; *************** function ___flmul *****************
  4026 ;; Defined at:
  4027 ;;		line 8 in file "C:\Program Files\Microchip\xc8\v2.32\pic\sources\c99\common\sprcmul.c"
  4028 ;; Parameters:    Size  Location     Type
  4029 ;;  b               4    0[BANK0 ] long 
  4030 ;;  a               4    4[BANK0 ] long 
  4031 ;; Auto vars:     Size  Location     Type
  4032 ;;  prod            4   20[BANK0 ] struct .
  4033 ;;  grs             4   14[BANK0 ] unsigned long 
  4034 ;;  temp            2   24[BANK0 ] struct .
  4035 ;;  bexp            1   19[BANK0 ] unsigned char 
  4036 ;;  aexp            1   18[BANK0 ] unsigned char 
  4037 ;;  sign            1   13[BANK0 ] unsigned char 
  4038 ;; Return value:  Size  Location     Type
  4039 ;;                  4    0[BANK0 ] unsigned char 
  4040 ;; Registers used:
  4041 ;;		wreg, status,2, status,0, pclath, cstack
  4042 ;; Tracked objects:
  4043 ;;		On entry : 0/0
  4044 ;;		On exit  : 0/0
  4045 ;;		Unchanged: 0/0
  4046 ;; Data sizes:     COMMON   BANK0   BANK1   BANK2   BANK3   BANK4   BANK5   BANK6   BANK7   BANK8   BANK9  BANK10  BANK1
      +1  BANK12  BANK13  BANK14  BANK15  BANK16  BANK17  BANK18  BANK19  BANK20  BANK21  BANK22  BANK23  BANK24  BANK25  BANK2
      +6  BANK27  BANK28  BANK29  BANK30  BANK31  BANK32  BANK33  BANK34  BANK35  BANK36  BANK37  BANK38  BANK39  BANK40  BANK4
      +1  BANK42  BANK43  BANK44  BANK45  BANK46  BANK47  BANK48  BANK49  BANK50
  4047 ;;      Params:         0       8       0       0       0       0       0       0       0       0       0       0       
      +0       0       0       0       0       0       0       0       0       0       0       0       0       0       0       
      +0       0       0       0       0       0       0       0       0       0       0       0       0       0       0       
      +0       0       0       0       0       0       0       0       0       0
  4048 ;;      Locals:         0      13       0       0       0       0       0       0       0       0       0       0       
      +0       0       0       0       0       0       0       0       0       0       0       0       0       0       0       
      +0       0       0       0       0       0       0       0       0       0       0       0       0       0       0       
      +0       0       0       0       0       0       0       0       0       0
  4049 ;;      Temps:          0       5       0       0       0       0       0       0       0       0       0       0       
      +0       0       0       0       0       0       0       0       0       0       0       0       0       0       0       
      +0       0       0       0       0       0       0       0       0       0       0       0       0       0       0       
      +0       0       0       0       0       0       0       0       0       0
  4050 ;;      Totals:         0      26       0       0       0       0       0       0       0       0       0       0       
      +0       0       0       0       0       0       0       0       0       0       0       0       0       0       0       
      +0       0       0       0       0       0       0       0       0       0       0       0       0       0       0       
      +0       0       0       0       0       0       0       0       0       0
  4051 ;;Total ram usage:       26 bytes
  4052 ;; Hardware stack levels used: 1
  4053 ;; Hardware stack levels required when called: 1
  4054 ;; This function calls:
  4055 ;;		__Umul8_16
  4056 ;; This function is called by:
  4057 ;;		_main
  4058 ;; This function uses a non-reentrant model
  4059 ;;
  4060                           
  4061                           
  4062                           ;psect for function ___flmul
  4063  059E                     ___flmul:
  4064  059E                     l1623:	
  4065                           ;incstack = 0
  4066                           ; Regs used in ___flmul: [wreg+status,2+status,0+pclath+cstack]
  4067                           
  4068  059E  0140               	movlb	0	; select bank0
  4069  059F  0823               	movf	___flmul@b+3,w
  4070  05A0  3980               	andlw	128
  4071  05A1  00A8               	movwf	??___flmul
  4072  05A2  0828               	movf	??___flmul,w
  4073  05A3  00AD               	movwf	___flmul@sign
  4074  05A4                     l1625:
  4075  05A4  3523               	lslf	___flmul@b+3,w
  4076  05A5  00A8               	movwf	??___flmul
  4077  05A6  0828               	movf	??___flmul,w
  4078  05A7  00B3               	movwf	___flmul@bexp
  4079  05A8                     l1627:
  4080  05A8  1FA2               	btfss	___flmul@b+2,7
  4081  05A9  2DAB               	goto	u1551
  4082  05AA  2DAC               	goto	u1550
  4083  05AB                     u1551:
  4084  05AB  2DAD               	goto	l1631
  4085  05AC                     u1550:
  4086  05AC                     l1629:
  4087  05AC  1433               	bsf	___flmul@bexp,0
  4088  05AD                     l1631:
  4089  05AD  0833               	movf	___flmul@bexp,w
  4090  05AE  1903               	btfsc	3,2
  4091  05AF  2DB1               	goto	u1561
  4092  05B0  2DB2               	goto	u1560
  4093  05B1                     u1561:
  4094  05B1  2DC1               	goto	l1639
  4095  05B2                     u1560:
  4096  05B2                     l1633:
  4097  05B2  0A33               	incf	___flmul@bexp,w
  4098  05B3  1D03               	btfss	3,2
  4099  05B4  2DB6               	goto	u1571
  4100  05B5  2DB7               	goto	u1570
  4101  05B6                     u1571:
  4102  05B6  2DBF               	goto	l1637
  4103  05B7                     u1570:
  4104  05B7                     l1635:
  4105  05B7  3000               	movlw	0
  4106  05B8  00A3               	movwf	___flmul@b+3
  4107  05B9  3000               	movlw	0
  4108  05BA  00A2               	movwf	___flmul@b+2
  4109  05BB  3000               	movlw	0
  4110  05BC  00A1               	movwf	___flmul@b+1
  4111  05BD  3000               	movlw	0
  4112  05BE  00A0               	movwf	___flmul@b
  4113  05BF                     l1637:
  4114  05BF  17A2               	bsf	___flmul@b+2,7
  4115  05C0  2DC9               	goto	l1641
  4116  05C1                     l1639:
  4117  05C1  3000               	movlw	0
  4118  05C2  00A3               	movwf	___flmul@b+3
  4119  05C3  3000               	movlw	0
  4120  05C4  00A2               	movwf	___flmul@b+2
  4121  05C5  3000               	movlw	0
  4122  05C6  00A1               	movwf	___flmul@b+1
  4123  05C7  3000               	movlw	0
  4124  05C8  00A0               	movwf	___flmul@b
  4125  05C9                     l1641:
  4126  05C9  0827               	movf	___flmul@a+3,w
  4127  05CA  3980               	andlw	128
  4128  05CB  00A8               	movwf	??___flmul
  4129  05CC  0828               	movf	??___flmul,w
  4130  05CD  06AD               	xorwf	___flmul@sign,f
  4131  05CE                     l1643:
  4132  05CE  3527               	lslf	___flmul@a+3,w
  4133  05CF  00A8               	movwf	??___flmul
  4134  05D0  0828               	movf	??___flmul,w
  4135  05D1  00B2               	movwf	___flmul@aexp
  4136  05D2                     l1645:
  4137  05D2  1FA6               	btfss	___flmul@a+2,7
  4138  05D3  2DD5               	goto	u1581
  4139  05D4  2DD6               	goto	u1580
  4140  05D5                     u1581:
  4141  05D5  2DD7               	goto	l1649
  4142  05D6                     u1580:
  4143  05D6                     l1647:
  4144  05D6  1432               	bsf	___flmul@aexp,0
  4145  05D7                     l1649:
  4146  05D7  0832               	movf	___flmul@aexp,w
  4147  05D8  1903               	btfsc	3,2
  4148  05D9  2DDB               	goto	u1591
  4149  05DA  2DDC               	goto	u1590
  4150  05DB                     u1591:
  4151  05DB  2DEB               	goto	l1657
  4152  05DC                     u1590:
  4153  05DC                     l1651:
  4154  05DC  0A32               	incf	___flmul@aexp,w
  4155  05DD  1D03               	btfss	3,2
  4156  05DE  2DE0               	goto	u1601
  4157  05DF  2DE1               	goto	u1600
  4158  05E0                     u1601:
  4159  05E0  2DE9               	goto	l1655
  4160  05E1                     u1600:
  4161  05E1                     l1653:
  4162  05E1  3000               	movlw	0
  4163  05E2  00A7               	movwf	___flmul@a+3
  4164  05E3  3000               	movlw	0
  4165  05E4  00A6               	movwf	___flmul@a+2
  4166  05E5  3000               	movlw	0
  4167  05E6  00A5               	movwf	___flmul@a+1
  4168  05E7  3000               	movlw	0
  4169  05E8  00A4               	movwf	___flmul@a
  4170  05E9                     l1655:
  4171  05E9  17A6               	bsf	___flmul@a+2,7
  4172  05EA  2DF3               	goto	l1659
  4173  05EB                     l1657:
  4174  05EB  3000               	movlw	0
  4175  05EC  00A7               	movwf	___flmul@a+3
  4176  05ED  3000               	movlw	0
  4177  05EE  00A6               	movwf	___flmul@a+2
  4178  05EF  3000               	movlw	0
  4179  05F0  00A5               	movwf	___flmul@a+1
  4180  05F1  3000               	movlw	0
  4181  05F2  00A4               	movwf	___flmul@a
  4182  05F3                     l1659:
  4183  05F3  0832               	movf	___flmul@aexp,w
  4184  05F4  1903               	btfsc	3,2
  4185  05F5  2DF7               	goto	u1611
  4186  05F6  2DF8               	goto	u1610
  4187  05F7                     u1611:
  4188  05F7  2DFD               	goto	l1663
  4189  05F8                     u1610:
  4190  05F8                     l1661:
  4191  05F8  0833               	movf	___flmul@bexp,w
  4192  05F9  1D03               	btfss	3,2
  4193  05FA  2DFC               	goto	u1621
  4194  05FB  2DFD               	goto	u1620
  4195  05FC                     u1621:
  4196  05FC  2E06               	goto	l1667
  4197  05FD                     u1620:
  4198  05FD                     l1663:
  4199  05FD  3000               	movlw	0
  4200  05FE  00A3               	movwf	?___flmul+3
  4201  05FF  3000               	movlw	0
  4202  0600  00A2               	movwf	?___flmul+2
  4203  0601  3000               	movlw	0
  4204  0602  00A1               	movwf	?___flmul+1
  4205  0603  3000               	movlw	0
  4206  0604  00A0               	movwf	?___flmul
  4207  0605  2FF4               	goto	l716
  4208  0606                     l1667:
  4209  0606  0820               	movf	___flmul@b,w
  4210  0607  00A8               	movwf	??___flmul
  4211  0608  0828               	movf	??___flmul,w
  4212  0609  00F0               	movwf	__Umul8_16@multiplicand
  4213  060A  0826               	movf	___flmul@a+2,w
  4214  060B  3181  2129  3185   	fcall	__Umul8_16
  4215  060E  0871               	movf	?__Umul8_16+1,w
  4216  060F  0140               	movlb	0	; select bank0
  4217  0610  00B9               	movwf	___flmul@temp+1
  4218  0611  0870               	movf	?__Umul8_16,w
  4219  0612  00B8               	movwf	___flmul@temp
  4220  0613                     l1669:
  4221  0613  0838               	movf	___flmul@temp,w
  4222  0614  00A8               	movwf	??___flmul
  4223  0615  01A9               	clrf	??___flmul+1
  4224  0616  01AA               	clrf	??___flmul+2
  4225  0617  01AB               	clrf	??___flmul+3
  4226  0618  082B               	movf	??___flmul+3,w
  4227  0619  00B1               	movwf	___flmul@grs+3
  4228  061A  082A               	movf	??___flmul+2,w
  4229  061B  00B0               	movwf	___flmul@grs+2
  4230  061C  0829               	movf	??___flmul+1,w
  4231  061D  00AF               	movwf	___flmul@grs+1
  4232  061E  0828               	movf	??___flmul,w
  4233  061F  00AE               	movwf	___flmul@grs
  4234  0620                     l1671:
  4235  0620  0839               	movf	___flmul@temp+1,w
  4236  0621  00A8               	movwf	??___flmul
  4237  0622  01A9               	clrf	??___flmul+1
  4238  0623  01AA               	clrf	??___flmul+2
  4239  0624  01AB               	clrf	??___flmul+3
  4240  0625  082B               	movf	??___flmul+3,w
  4241  0626  00B7               	movwf	___flmul@prod+3
  4242  0627  082A               	movf	??___flmul+2,w
  4243  0628  00B6               	movwf	___flmul@prod+2
  4244  0629  0829               	movf	??___flmul+1,w
  4245  062A  00B5               	movwf	___flmul@prod+1
  4246  062B  0828               	movf	??___flmul,w
  4247  062C  00B4               	movwf	___flmul@prod
  4248  062D  0821               	movf	___flmul@b+1,w
  4249  062E  00A8               	movwf	??___flmul
  4250  062F  0828               	movf	??___flmul,w
  4251  0630  00F0               	movwf	__Umul8_16@multiplicand
  4252  0631  0825               	movf	___flmul@a+1,w
  4253  0632  3181  2129  3185   	fcall	__Umul8_16
  4254  0635  0871               	movf	?__Umul8_16+1,w
  4255  0636  0140               	movlb	0	; select bank0
  4256  0637  00B9               	movwf	___flmul@temp+1
  4257  0638  0870               	movf	?__Umul8_16,w
  4258  0639  00B8               	movwf	___flmul@temp
  4259  063A                     l1673:
  4260  063A  0838               	movf	___flmul@temp,w
  4261  063B  00A8               	movwf	??___flmul
  4262  063C  01A9               	clrf	??___flmul+1
  4263  063D  01AA               	clrf	??___flmul+2
  4264  063E  01AB               	clrf	??___flmul+3
  4265  063F  0828               	movf	??___flmul,w
  4266  0640  07AE               	addwf	___flmul@grs,f
  4267  0641  0829               	movf	??___flmul+1,w
  4268  0642  3DAF               	addwfc	___flmul@grs+1,f
  4269  0643  082A               	movf	??___flmul+2,w
  4270  0644  3DB0               	addwfc	___flmul@grs+2,f
  4271  0645  082B               	movf	??___flmul+3,w
  4272  0646  3DB1               	addwfc	___flmul@grs+3,f
  4273  0647                     l1675:
  4274  0647  0839               	movf	___flmul@temp+1,w
  4275  0648  00A8               	movwf	??___flmul
  4276  0649  01A9               	clrf	??___flmul+1
  4277  064A  01AA               	clrf	??___flmul+2
  4278  064B  01AB               	clrf	??___flmul+3
  4279  064C  0828               	movf	??___flmul,w
  4280  064D  07B4               	addwf	___flmul@prod,f
  4281  064E  0829               	movf	??___flmul+1,w
  4282  064F  3DB5               	addwfc	___flmul@prod+1,f
  4283  0650  082A               	movf	??___flmul+2,w
  4284  0651  3DB6               	addwfc	___flmul@prod+2,f
  4285  0652  082B               	movf	??___flmul+3,w
  4286  0653  3DB7               	addwfc	___flmul@prod+3,f
  4287  0654  0822               	movf	___flmul@b+2,w
  4288  0655  00A8               	movwf	??___flmul
  4289  0656  0828               	movf	??___flmul,w
  4290  0657  00F0               	movwf	__Umul8_16@multiplicand
  4291  0658  0824               	movf	___flmul@a,w
  4292  0659  3181  2129  3185   	fcall	__Umul8_16
  4293  065C  0871               	movf	?__Umul8_16+1,w
  4294  065D  0140               	movlb	0	; select bank0
  4295  065E  00B9               	movwf	___flmul@temp+1
  4296  065F  0870               	movf	?__Umul8_16,w
  4297  0660  00B8               	movwf	___flmul@temp
  4298  0661                     l1677:
  4299  0661  0838               	movf	___flmul@temp,w
  4300  0662  00A8               	movwf	??___flmul
  4301  0663  01A9               	clrf	??___flmul+1
  4302  0664  01AA               	clrf	??___flmul+2
  4303  0665  01AB               	clrf	??___flmul+3
  4304  0666  0828               	movf	??___flmul,w
  4305  0667  07AE               	addwf	___flmul@grs,f
  4306  0668  0829               	movf	??___flmul+1,w
  4307  0669  3DAF               	addwfc	___flmul@grs+1,f
  4308  066A  082A               	movf	??___flmul+2,w
  4309  066B  3DB0               	addwfc	___flmul@grs+2,f
  4310  066C  082B               	movf	??___flmul+3,w
  4311  066D  3DB1               	addwfc	___flmul@grs+3,f
  4312  066E                     l1679:
  4313  066E  0839               	movf	___flmul@temp+1,w
  4314  066F  00A8               	movwf	??___flmul
  4315  0670  01A9               	clrf	??___flmul+1
  4316  0671  01AA               	clrf	??___flmul+2
  4317  0672  01AB               	clrf	??___flmul+3
  4318  0673  0828               	movf	??___flmul,w
  4319  0674  07B4               	addwf	___flmul@prod,f
  4320  0675  0829               	movf	??___flmul+1,w
  4321  0676  3DB5               	addwfc	___flmul@prod+1,f
  4322  0677  082A               	movf	??___flmul+2,w
  4323  0678  3DB6               	addwfc	___flmul@prod+2,f
  4324  0679  082B               	movf	??___flmul+3,w
  4325  067A  3DB7               	addwfc	___flmul@prod+3,f
  4326  067B                     l1681:
  4327  067B  3008               	movlw	8
  4328  067C                     u1635:
  4329  067C  35AE               	lslf	___flmul@grs,f
  4330  067D  0DAF               	rlf	___flmul@grs+1,f
  4331  067E  0DB0               	rlf	___flmul@grs+2,f
  4332  067F  0DB1               	rlf	___flmul@grs+3,f
  4333  0680  0B89               	decfsz	9,f
  4334  0681  2E7C               	goto	u1635
  4335  0682                     l1683:
  4336  0682  0821               	movf	___flmul@b+1,w
  4337  0683  00A8               	movwf	??___flmul
  4338  0684  0828               	movf	??___flmul,w
  4339  0685  00F0               	movwf	__Umul8_16@multiplicand
  4340  0686  0824               	movf	___flmul@a,w
  4341  0687  3181  2129  3185   	fcall	__Umul8_16
  4342  068A  0871               	movf	?__Umul8_16+1,w
  4343  068B  0140               	movlb	0	; select bank0
  4344  068C  00B9               	movwf	___flmul@temp+1
  4345  068D  0870               	movf	?__Umul8_16,w
  4346  068E  00B8               	movwf	___flmul@temp
  4347  068F                     l1685:
  4348  068F  0838               	movf	___flmul@temp,w
  4349  0690  07AE               	addwf	___flmul@grs,f
  4350  0691  0839               	movf	___flmul@temp+1,w
  4351  0692  3DAF               	addwfc	___flmul@grs+1,f
  4352  0693  3000               	movlw	0
  4353  0694  3DB0               	addwfc	___flmul@grs+2,f
  4354  0695  3DB1               	addwfc	___flmul@grs+3,f
  4355  0696                     l1687:
  4356  0696  0820               	movf	___flmul@b,w
  4357  0697  00A8               	movwf	??___flmul
  4358  0698  0828               	movf	??___flmul,w
  4359  0699  00F0               	movwf	__Umul8_16@multiplicand
  4360  069A  0825               	movf	___flmul@a+1,w
  4361  069B  3181  2129  3185   	fcall	__Umul8_16
  4362  069E  0871               	movf	?__Umul8_16+1,w
  4363  069F  0140               	movlb	0	; select bank0
  4364  06A0  00B9               	movwf	___flmul@temp+1
  4365  06A1  0870               	movf	?__Umul8_16,w
  4366  06A2  00B8               	movwf	___flmul@temp
  4367  06A3                     l1689:
  4368  06A3  0838               	movf	___flmul@temp,w
  4369  06A4  07AE               	addwf	___flmul@grs,f
  4370  06A5  0839               	movf	___flmul@temp+1,w
  4371  06A6  3DAF               	addwfc	___flmul@grs+1,f
  4372  06A7  3000               	movlw	0
  4373  06A8  3DB0               	addwfc	___flmul@grs+2,f
  4374  06A9  3DB1               	addwfc	___flmul@grs+3,f
  4375  06AA                     l1691:
  4376  06AA  3008               	movlw	8
  4377  06AB                     u1645:
  4378  06AB  35AE               	lslf	___flmul@grs,f
  4379  06AC  0DAF               	rlf	___flmul@grs+1,f
  4380  06AD  0DB0               	rlf	___flmul@grs+2,f
  4381  06AE  0DB1               	rlf	___flmul@grs+3,f
  4382  06AF  0B89               	decfsz	9,f
  4383  06B0  2EAB               	goto	u1645
  4384  06B1  0820               	movf	___flmul@b,w
  4385  06B2  00A8               	movwf	??___flmul
  4386  06B3  0828               	movf	??___flmul,w
  4387  06B4  00F0               	movwf	__Umul8_16@multiplicand
  4388  06B5  0824               	movf	___flmul@a,w
  4389  06B6  3181  2129  3185   	fcall	__Umul8_16
  4390  06B9  0871               	movf	?__Umul8_16+1,w
  4391  06BA  0140               	movlb	0	; select bank0
  4392  06BB  00B9               	movwf	___flmul@temp+1
  4393  06BC  0870               	movf	?__Umul8_16,w
  4394  06BD  00B8               	movwf	___flmul@temp
  4395  06BE                     l1693:
  4396  06BE  0838               	movf	___flmul@temp,w
  4397  06BF  07AE               	addwf	___flmul@grs,f
  4398  06C0  0839               	movf	___flmul@temp+1,w
  4399  06C1  3DAF               	addwfc	___flmul@grs+1,f
  4400  06C2  3000               	movlw	0
  4401  06C3  3DB0               	addwfc	___flmul@grs+2,f
  4402  06C4  3DB1               	addwfc	___flmul@grs+3,f
  4403  06C5                     l1695:
  4404  06C5  0821               	movf	___flmul@b+1,w
  4405  06C6  00A8               	movwf	??___flmul
  4406  06C7  0828               	movf	??___flmul,w
  4407  06C8  00F0               	movwf	__Umul8_16@multiplicand
  4408  06C9  0826               	movf	___flmul@a+2,w
  4409  06CA  3181  2129  3185   	fcall	__Umul8_16
  4410  06CD  0871               	movf	?__Umul8_16+1,w
  4411  06CE  0140               	movlb	0	; select bank0
  4412  06CF  00B9               	movwf	___flmul@temp+1
  4413  06D0  0870               	movf	?__Umul8_16,w
  4414  06D1  00B8               	movwf	___flmul@temp
  4415  06D2  0838               	movf	___flmul@temp,w
  4416  06D3  07B4               	addwf	___flmul@prod,f
  4417  06D4  0839               	movf	___flmul@temp+1,w
  4418  06D5  3DB5               	addwfc	___flmul@prod+1,f
  4419  06D6  3000               	movlw	0
  4420  06D7  3DB6               	addwfc	___flmul@prod+2,f
  4421  06D8  3DB7               	addwfc	___flmul@prod+3,f
  4422  06D9                     l1697:
  4423  06D9  0822               	movf	___flmul@b+2,w
  4424  06DA  00A8               	movwf	??___flmul
  4425  06DB  0828               	movf	??___flmul,w
  4426  06DC  00F0               	movwf	__Umul8_16@multiplicand
  4427  06DD  0825               	movf	___flmul@a+1,w
  4428  06DE  3181  2129  3185   	fcall	__Umul8_16
  4429  06E1  0871               	movf	?__Umul8_16+1,w
  4430  06E2  0140               	movlb	0	; select bank0
  4431  06E3  00B9               	movwf	___flmul@temp+1
  4432  06E4  0870               	movf	?__Umul8_16,w
  4433  06E5  00B8               	movwf	___flmul@temp
  4434  06E6                     l1699:
  4435  06E6  0838               	movf	___flmul@temp,w
  4436  06E7  07B4               	addwf	___flmul@prod,f
  4437  06E8  0839               	movf	___flmul@temp+1,w
  4438  06E9  3DB5               	addwfc	___flmul@prod+1,f
  4439  06EA  3000               	movlw	0
  4440  06EB  3DB6               	addwfc	___flmul@prod+2,f
  4441  06EC  3DB7               	addwfc	___flmul@prod+3,f
  4442  06ED  0822               	movf	___flmul@b+2,w
  4443  06EE  00A8               	movwf	??___flmul
  4444  06EF  0828               	movf	??___flmul,w
  4445  06F0  00F0               	movwf	__Umul8_16@multiplicand
  4446  06F1  0826               	movf	___flmul@a+2,w
  4447  06F2  3181  2129  3185   	fcall	__Umul8_16
  4448  06F5  0871               	movf	?__Umul8_16+1,w
  4449  06F6  0140               	movlb	0	; select bank0
  4450  06F7  00B9               	movwf	___flmul@temp+1
  4451  06F8  0870               	movf	?__Umul8_16,w
  4452  06F9  00B8               	movwf	___flmul@temp
  4453  06FA                     l1701:
  4454  06FA  0838               	movf	___flmul@temp,w
  4455  06FB  00A8               	movwf	??___flmul
  4456  06FC  0839               	movf	___flmul@temp+1,w
  4457  06FD  00A9               	movwf	??___flmul+1
  4458  06FE  01AA               	clrf	??___flmul+2
  4459  06FF  01AB               	clrf	??___flmul+3
  4460  0700  3008               	movlw	8
  4461  0701                     u1655:
  4462  0701  35A8               	lslf	??___flmul,f
  4463  0702  0DA9               	rlf	??___flmul+1,f
  4464  0703  0DAA               	rlf	??___flmul+2,f
  4465  0704  0DAB               	rlf	??___flmul+3,f
  4466  0705                     u1650:
  4467  0705  0B89               	decfsz	9,f
  4468  0706  2F01               	goto	u1655
  4469  0707  0828               	movf	??___flmul,w
  4470  0708  07B4               	addwf	___flmul@prod,f
  4471  0709  0829               	movf	??___flmul+1,w
  4472  070A  3DB5               	addwfc	___flmul@prod+1,f
  4473  070B  082A               	movf	??___flmul+2,w
  4474  070C  3DB6               	addwfc	___flmul@prod+2,f
  4475  070D  082B               	movf	??___flmul+3,w
  4476  070E  3DB7               	addwfc	___flmul@prod+3,f
  4477  070F                     l1703:
  4478  070F  082E               	movf	___flmul@grs,w
  4479  0710  00A8               	movwf	??___flmul
  4480  0711  082F               	movf	___flmul@grs+1,w
  4481  0712  00A9               	movwf	??___flmul+1
  4482  0713  0830               	movf	___flmul@grs+2,w
  4483  0714  00AA               	movwf	??___flmul+2
  4484  0715  0831               	movf	___flmul@grs+3,w
  4485  0716  00AB               	movwf	??___flmul+3
  4486  0717  3018               	movlw	24
  4487  0718                     u1665:
  4488  0718  36AB               	lsrf	??___flmul+3,f
  4489  0719  0CAA               	rrf	??___flmul+2,f
  4490  071A  0CA9               	rrf	??___flmul+1,f
  4491  071B  0CA8               	rrf	??___flmul,f
  4492  071C                     u1660:
  4493  071C  0B89               	decfsz	9,f
  4494  071D  2F18               	goto	u1665
  4495  071E  0828               	movf	??___flmul,w
  4496  071F  07B4               	addwf	___flmul@prod,f
  4497  0720  0829               	movf	??___flmul+1,w
  4498  0721  3DB5               	addwfc	___flmul@prod+1,f
  4499  0722  082A               	movf	??___flmul+2,w
  4500  0723  3DB6               	addwfc	___flmul@prod+2,f
  4501  0724  082B               	movf	??___flmul+3,w
  4502  0725  3DB7               	addwfc	___flmul@prod+3,f
  4503  0726                     l1705:
  4504  0726  3008               	movlw	8
  4505  0727                     u1675:
  4506  0727  35AE               	lslf	___flmul@grs,f
  4507  0728  0DAF               	rlf	___flmul@grs+1,f
  4508  0729  0DB0               	rlf	___flmul@grs+2,f
  4509  072A  0DB1               	rlf	___flmul@grs+3,f
  4510  072B  0B89               	decfsz	9,f
  4511  072C  2F27               	goto	u1675
  4512  072D                     l1707:
  4513  072D  0833               	movf	___flmul@bexp,w
  4514  072E  0732               	addwf	___flmul@aexp,w
  4515  072F  00A8               	movwf	??___flmul
  4516  0730  01A9               	clrf	??___flmul+1
  4517  0731  0DA9               	rlf	??___flmul+1,f
  4518  0732  0828               	movf	??___flmul,w
  4519  0733  3E82               	addlw	130
  4520  0734  00B8               	movwf	___flmul@temp
  4521  0735  30FF               	movlw	255
  4522  0736  3D29               	addwfc	??___flmul+1,w
  4523  0737  00B9               	movwf	___flmul@temp+1
  4524  0738  2F50               	goto	l1719
  4525  0739                     l1709:
  4526  0739  3001               	movlw	1
  4527  073A                     u1685:
  4528  073A  35B4               	lslf	___flmul@prod,f
  4529  073B  0DB5               	rlf	___flmul@prod+1,f
  4530  073C  0DB6               	rlf	___flmul@prod+2,f
  4531  073D  0DB7               	rlf	___flmul@prod+3,f
  4532  073E  0B89               	decfsz	9,f
  4533  073F  2F3A               	goto	u1685
  4534  0740                     l1711:
  4535  0740  1FB1               	btfss	___flmul@grs+3,7
  4536  0741  2F43               	goto	u1691
  4537  0742  2F44               	goto	u1690
  4538  0743                     u1691:
  4539  0743  2F45               	goto	l1715
  4540  0744                     u1690:
  4541  0744                     l1713:
  4542  0744  1434               	bsf	___flmul@prod,0
  4543  0745                     l1715:
  4544  0745  3001               	movlw	1
  4545  0746                     u1705:
  4546  0746  35AE               	lslf	___flmul@grs,f
  4547  0747  0DAF               	rlf	___flmul@grs+1,f
  4548  0748  0DB0               	rlf	___flmul@grs+2,f
  4549  0749  0DB1               	rlf	___flmul@grs+3,f
  4550  074A  0B89               	decfsz	9,f
  4551  074B  2F46               	goto	u1705
  4552  074C                     l1717:
  4553  074C  30FF               	movlw	255
  4554  074D  07B8               	addwf	___flmul@temp,f
  4555  074E  30FF               	movlw	255
  4556  074F  3DB9               	addwfc	___flmul@temp+1,f
  4557  0750                     l1719:
  4558  0750  1FB6               	btfss	___flmul@prod+2,7
  4559  0751  2F53               	goto	u1711
  4560  0752  2F54               	goto	u1710
  4561  0753                     u1711:
  4562  0753  2F39               	goto	l1709
  4563  0754                     u1710:
  4564  0754                     l1721:
  4565  0754  01B2               	clrf	___flmul@aexp
  4566  0755                     l1723:
  4567  0755  1FB1               	btfss	___flmul@grs+3,7
  4568  0756  2F58               	goto	u1721
  4569  0757  2F59               	goto	u1720
  4570  0758                     u1721:
  4571  0758  2F75               	goto	l1731
  4572  0759                     u1720:
  4573  0759                     l1725:
  4574  0759  30FF               	movlw	255
  4575  075A  052E               	andwf	___flmul@grs,w
  4576  075B  00A8               	movwf	??___flmul
  4577  075C  30FF               	movlw	255
  4578  075D  052F               	andwf	___flmul@grs+1,w
  4579  075E  00A9               	movwf	??___flmul+1
  4580  075F  30FF               	movlw	255
  4581  0760  0530               	andwf	___flmul@grs+2,w
  4582  0761  00AA               	movwf	??___flmul+2
  4583  0762  307F               	movlw	127
  4584  0763  0531               	andwf	___flmul@grs+3,w
  4585  0764  00AB               	movwf	??___flmul+3
  4586  0765  082B               	movf	??___flmul+3,w
  4587  0766  042A               	iorwf	??___flmul+2,w
  4588  0767  0429               	iorwf	??___flmul+1,w
  4589  0768  0428               	iorwf	??___flmul,w
  4590  0769  1903               	skipnz
  4591  076A  2F6C               	goto	u1731
  4592  076B  2F6D               	goto	u1730
  4593  076C                     u1731:
  4594  076C  2F70               	goto	l722
  4595  076D                     u1730:
  4596  076D                     l1727:
  4597  076D  01B2               	clrf	___flmul@aexp
  4598  076E  0AB2               	incf	___flmul@aexp,f
  4599  076F  2F75               	goto	l1731
  4600  0770                     l722:
  4601  0770  1C34               	btfss	___flmul@prod,0
  4602  0771  2F73               	goto	u1741
  4603  0772  2F74               	goto	u1740
  4604  0773                     u1741:
  4605  0773  2F75               	goto	l1731
  4606  0774                     u1740:
  4607  0774  2F6D               	goto	l1727
  4608  0775                     l1731:
  4609  0775  0832               	movf	___flmul@aexp,w
  4610  0776  1903               	btfsc	3,2
  4611  0777  2F79               	goto	u1751
  4612  0778  2F7A               	goto	u1750
  4613  0779                     u1751:
  4614  0779  2FA2               	goto	l1741
  4615  077A                     u1750:
  4616  077A                     l1733:
  4617  077A  3001               	movlw	1
  4618  077B  07B4               	addwf	___flmul@prod,f
  4619  077C  3000               	movlw	0
  4620  077D  3DB5               	addwfc	___flmul@prod+1,f
  4621  077E  3000               	movlw	0
  4622  077F  3DB6               	addwfc	___flmul@prod+2,f
  4623  0780  3000               	movlw	0
  4624  0781  3DB7               	addwfc	___flmul@prod+3,f
  4625  0782                     l1735:
  4626  0782  1C37               	btfss	___flmul@prod+3,0
  4627  0783  2F85               	goto	u1761
  4628  0784  2F86               	goto	u1760
  4629  0785                     u1761:
  4630  0785  2FA2               	goto	l1741
  4631  0786                     u1760:
  4632  0786                     l1737:
  4633  0786  0834               	movf	___flmul@prod,w
  4634  0787  00A8               	movwf	??___flmul
  4635  0788  0835               	movf	___flmul@prod+1,w
  4636  0789  00A9               	movwf	??___flmul+1
  4637  078A  0836               	movf	___flmul@prod+2,w
  4638  078B  00AA               	movwf	??___flmul+2
  4639  078C  0837               	movf	___flmul@prod+3,w
  4640  078D  00AB               	movwf	??___flmul+3
  4641  078E  3001               	movlw	1
  4642  078F  00AC               	movwf	??___flmul+4
  4643  0790                     u1775:
  4644  0790  37AB               	asrf	??___flmul+3,f
  4645  0791  0CAA               	rrf	??___flmul+2,f
  4646  0792  0CA9               	rrf	??___flmul+1,f
  4647  0793  0CA8               	rrf	??___flmul,f
  4648  0794                     u1770:
  4649  0794  0BAC               	decfsz	??___flmul+4,f
  4650  0795  2F90               	goto	u1775
  4651  0796  082B               	movf	??___flmul+3,w
  4652  0797  00B7               	movwf	___flmul@prod+3
  4653  0798  082A               	movf	??___flmul+2,w
  4654  0799  00B6               	movwf	___flmul@prod+2
  4655  079A  0829               	movf	??___flmul+1,w
  4656  079B  00B5               	movwf	___flmul@prod+1
  4657  079C  0828               	movf	??___flmul,w
  4658  079D  00B4               	movwf	___flmul@prod
  4659  079E                     l1739:
  4660  079E  3001               	movlw	1
  4661  079F  07B8               	addwf	___flmul@temp,f
  4662  07A0  3000               	movlw	0
  4663  07A1  3DB9               	addwfc	___flmul@temp+1,f
  4664  07A2                     l1741:
  4665  07A2  0839               	movf	___flmul@temp+1,w
  4666  07A3  3A80               	xorlw	128
  4667  07A4  00A8               	movwf	??___flmul
  4668  07A5  3080               	movlw	128
  4669  07A6  0228               	subwf	??___flmul,w
  4670  07A7  1D03               	skipz
  4671  07A8  2FAB               	goto	u1785
  4672  07A9  30FF               	movlw	255
  4673  07AA  0238               	subwf	___flmul@temp,w
  4674  07AB                     u1785:
  4675  07AB  1C03               	skipc
  4676  07AC  2FAE               	goto	u1781
  4677  07AD  2FAF               	goto	u1780
  4678  07AE                     u1781:
  4679  07AE  2FB9               	goto	l1745
  4680  07AF                     u1780:
  4681  07AF                     l1743:
  4682  07AF  307F               	movlw	127
  4683  07B0  0140               	movlb	0	; select bank0
  4684  07B1  00B7               	movwf	___flmul@prod+3
  4685  07B2  3080               	movlw	128
  4686  07B3  00B6               	movwf	___flmul@prod+2
  4687  07B4  3000               	movlw	0
  4688  07B5  00B5               	movwf	___flmul@prod+1
  4689  07B6  3000               	movlw	0
  4690  07B7  00B4               	movwf	___flmul@prod
  4691  07B8  2FE8               	goto	l728
  4692  07B9                     l1745:
  4693  07B9  0140               	movlb	0	; select bank0
  4694  07BA  0839               	movf	___flmul@temp+1,w
  4695  07BB  3A80               	xorlw	128
  4696  07BC  00A8               	movwf	??___flmul
  4697  07BD  3080               	movlw	128
  4698  07BE  0228               	subwf	??___flmul,w
  4699  07BF  1D03               	skipz
  4700  07C0  2FC3               	goto	u1795
  4701  07C1  3001               	movlw	1
  4702  07C2  0238               	subwf	___flmul@temp,w
  4703  07C3                     u1795:
  4704  07C3  1803               	skipnc
  4705  07C4  2FC6               	goto	u1791
  4706  07C5  2FC7               	goto	u1790
  4707  07C6                     u1791:
  4708  07C6  2FD2               	goto	l1751
  4709  07C7                     u1790:
  4710  07C7                     l1747:
  4711  07C7  3000               	movlw	0
  4712  07C8  0140               	movlb	0	; select bank0
  4713  07C9  00B7               	movwf	___flmul@prod+3
  4714  07CA  3000               	movlw	0
  4715  07CB  00B6               	movwf	___flmul@prod+2
  4716  07CC  3000               	movlw	0
  4717  07CD  00B5               	movwf	___flmul@prod+1
  4718  07CE  3000               	movlw	0
  4719  07CF  00B4               	movwf	___flmul@prod
  4720  07D0                     l1749:
  4721  07D0  01AD               	clrf	___flmul@sign
  4722  07D1  2FE8               	goto	l728
  4723  07D2                     l1751:
  4724  07D2  0140               	movlb	0	; select bank0
  4725  07D3  0838               	movf	___flmul@temp,w
  4726  07D4  00A8               	movwf	??___flmul
  4727  07D5  0828               	movf	??___flmul,w
  4728  07D6  00B3               	movwf	___flmul@bexp
  4729  07D7  30FF               	movlw	255
  4730  07D8  05B4               	andwf	___flmul@prod,f
  4731  07D9  30FF               	movlw	255
  4732  07DA  05B5               	andwf	___flmul@prod+1,f
  4733  07DB  307F               	movlw	127
  4734  07DC  05B6               	andwf	___flmul@prod+2,f
  4735  07DD  3000               	movlw	0
  4736  07DE  05B7               	andwf	___flmul@prod+3,f
  4737  07DF                     l1753:
  4738  07DF  1C33               	btfss	___flmul@bexp,0
  4739  07E0  2FE2               	goto	u1801
  4740  07E1  2FE3               	goto	u1800
  4741  07E2                     u1801:
  4742  07E2  2FE4               	goto	l1757
  4743  07E3                     u1800:
  4744  07E3                     l1755:
  4745  07E3  17B6               	bsf	___flmul@prod+2,7
  4746  07E4                     l1757:
  4747  07E4  3633               	lsrf	___flmul@bexp,w
  4748  07E5  00A8               	movwf	??___flmul
  4749  07E6  0828               	movf	??___flmul,w
  4750  07E7  00B7               	movwf	___flmul@prod+3
  4751  07E8                     l728:
  4752  07E8  082D               	movf	___flmul@sign,w
  4753  07E9  00A8               	movwf	??___flmul
  4754  07EA  0828               	movf	??___flmul,w
  4755  07EB  04B7               	iorwf	___flmul@prod+3,f
  4756  07EC                     l1759:
  4757  07EC  0837               	movf	___flmul@prod+3,w
  4758  07ED  00A3               	movwf	?___flmul+3
  4759  07EE  0836               	movf	___flmul@prod+2,w
  4760  07EF  00A2               	movwf	?___flmul+2
  4761  07F0  0835               	movf	___flmul@prod+1,w
  4762  07F1  00A1               	movwf	?___flmul+1
  4763  07F2  0834               	movf	___flmul@prod,w
  4764  07F3  00A0               	movwf	?___flmul
  4765  07F4                     l716:
  4766  07F4  0008               	return
  4767  07F5                     __end_of___flmul:
  4768                           
  4769                           	psect	text16
  4770  0129                     __ptext16:	
  4771 ;; *************** function __Umul8_16 *****************
  4772 ;; Defined at:
  4773 ;;		line 4 in file "C:\Program Files\Microchip\xc8\v2.32\pic\sources\c99\common\Umul8_16.c"
  4774 ;; Parameters:    Size  Location     Type
  4775 ;;  multiplier      1    wreg     unsigned char 
  4776 ;;  multiplicand    1    0[COMMON] unsigned char 
  4777 ;; Auto vars:     Size  Location     Type
  4778 ;;  multiplier      1    8[COMMON] unsigned char 
  4779 ;;  word_mpld       2    6[COMMON] unsigned int 
  4780 ;;  product         2    4[COMMON] unsigned int 
  4781 ;; Return value:  Size  Location     Type
  4782 ;;                  2    0[COMMON] unsigned int 
  4783 ;; Registers used:
  4784 ;;		wreg, status,2, status,0
  4785 ;; Tracked objects:
  4786 ;;		On entry : 0/0
  4787 ;;		On exit  : 0/0
  4788 ;;		Unchanged: 0/0
  4789 ;; Data sizes:     COMMON   BANK0   BANK1   BANK2   BANK3   BANK4   BANK5   BANK6   BANK7   BANK8   BANK9  BANK10  BANK1
      +1  BANK12  BANK13  BANK14  BANK15  BANK16  BANK17  BANK18  BANK19  BANK20  BANK21  BANK22  BANK23  BANK24  BANK25  BANK2
      +6  BANK27  BANK28  BANK29  BANK30  BANK31  BANK32  BANK33  BANK34  BANK35  BANK36  BANK37  BANK38  BANK39  BANK40  BANK4
      +1  BANK42  BANK43  BANK44  BANK45  BANK46  BANK47  BANK48  BANK49  BANK50
  4790 ;;      Params:         2       0       0       0       0       0       0       0       0       0       0       0       
      +0       0       0       0       0       0       0       0       0       0       0       0       0       0       0       
      +0       0       0       0       0       0       0       0       0       0       0       0       0       0       0       
      +0       0       0       0       0       0       0       0       0       0
  4791 ;;      Locals:         5       0       0       0       0       0       0       0       0       0       0       0       
      +0       0       0       0       0       0       0       0       0       0       0       0       0       0       0       
      +0       0       0       0       0       0       0       0       0       0       0       0       0       0       0       
      +0       0       0       0       0       0       0       0       0       0
  4792 ;;      Temps:          2       0       0       0       0       0       0       0       0       0       0       0       
      +0       0       0       0       0       0       0       0       0       0       0       0       0       0       0       
      +0       0       0       0       0       0       0       0       0       0       0       0       0       0       0       
      +0       0       0       0       0       0       0       0       0       0
  4793 ;;      Totals:         9       0       0       0       0       0       0       0       0       0       0       0       
      +0       0       0       0       0       0       0       0       0       0       0       0       0       0       0       
      +0       0       0       0       0       0       0       0       0       0       0       0       0       0       0       
      +0       0       0       0       0       0       0       0       0       0
  4794 ;;Total ram usage:        9 bytes
  4795 ;; Hardware stack levels used: 1
  4796 ;; This function calls:
  4797 ;;		Nothing
  4798 ;; This function is called by:
  4799 ;;		___flmul
  4800 ;; This function uses a non-reentrant model
  4801 ;;
  4802                           
  4803                           
  4804                           ;psect for function __Umul8_16
  4805  0129                     __Umul8_16:
  4806                           
  4807                           ;incstack = 0
  4808                           ; Regs used in __Umul8_16: [wreg+status,2+status,0]
  4809                           ;__Umul8_16@multiplier stored from wreg
  4810  0129  00F8               	movwf	__Umul8_16@multiplier
  4811  012A                     l1423:
  4812  012A  01F4               	clrf	__Umul8_16@product
  4813  012B  01F5               	clrf	__Umul8_16@product+1
  4814  012C                     l1425:
  4815  012C  0870               	movf	__Umul8_16@multiplicand,w
  4816  012D  00F2               	movwf	??__Umul8_16
  4817  012E  01F3               	clrf	??__Umul8_16+1
  4818  012F  0872               	movf	??__Umul8_16,w
  4819  0130  00F6               	movwf	__Umul8_16@word_mpld
  4820  0131  0873               	movf	??__Umul8_16+1,w
  4821  0132  00F7               	movwf	__Umul8_16@word_mpld+1
  4822  0133                     l1427:
  4823  0133  1C78               	btfss	__Umul8_16@multiplier,0
  4824  0134  2936               	goto	u1241
  4825  0135  2937               	goto	u1240
  4826  0136                     u1241:
  4827  0136  293B               	goto	l735
  4828  0137                     u1240:
  4829  0137                     l1429:
  4830  0137  0876               	movf	__Umul8_16@word_mpld,w
  4831  0138  07F4               	addwf	__Umul8_16@product,f
  4832  0139  0877               	movf	__Umul8_16@word_mpld+1,w
  4833  013A  3DF5               	addwfc	__Umul8_16@product+1,f
  4834  013B                     l735:
  4835  013B  3001               	movlw	1
  4836  013C                     u1255:
  4837  013C  35F6               	lslf	__Umul8_16@word_mpld,f
  4838  013D  0DF7               	rlf	__Umul8_16@word_mpld+1,f
  4839  013E  0B89               	decfsz	9,f
  4840  013F  293C               	goto	u1255
  4841  0140  1003               	clrc
  4842  0141  0CF8               	rrf	__Umul8_16@multiplier,f
  4843  0142                     l1431:
  4844  0142  0878               	movf	__Umul8_16@multiplier,w
  4845  0143  1D03               	btfss	3,2
  4846  0144  2946               	goto	u1261
  4847  0145  2947               	goto	u1260
  4848  0146                     u1261:
  4849  0146  2933               	goto	l1427
  4850  0147                     u1260:
  4851  0147                     l1433:
  4852  0147  0875               	movf	__Umul8_16@product+1,w
  4853  0148  00F1               	movwf	?__Umul8_16+1
  4854  0149  0874               	movf	__Umul8_16@product,w
  4855  014A  00F0               	movwf	?__Umul8_16
  4856  014B                     l737:
  4857  014B  0008               	return
  4858  014C                     __end_of__Umul8_16:
  4859  007E                     btemp	set	126	;btemp
  4860  007E                     wtemp0	set	126
  4861                           
  4862                           	psect	config
  4863                           
  4864                           ;Config register CONFIG1 @ 0x8007
  4865                           ;	External Oscillator mode selection bits
  4866                           ;	FEXTOSC = XT, XT (crystal oscillator) above 500kHz, below 4MHz; PFM set to medium powe
      +                          r
  4867                           ;	Power-up default value for COSC bits
  4868                           ;	RSTOSC = EXT1X, EXTOSC operating per FEXTOSC bits
  4869                           ;	Clock Out Enable bit
  4870                           ;	CLKOUTEN = OFF, CLKOUT function is disabled; i/o or oscillator function on OSC2
  4871                           ;	Clock Switch Enable bit
  4872                           ;	CSWEN = ON, Writing to NOSC and NDIV is allowed
  4873                           ;	Fail-Safe Clock Monitor Enable bit
  4874                           ;	FCMEN = ON, FSCM timer enabled
  4875  8007                     	org	32775
  4876  8007  3FF9               	dw	16377
  4877                           
  4878                           ;Config register CONFIG2 @ 0x8008
  4879                           ;	Master Clear Enable bit
  4880                           ;	MCLRE = ON, MCLR pin is Master Clear function
  4881                           ;	Power-up Timer Enable bit
  4882                           ;	PWRTE = OFF, PWRT disabled
  4883                           ;	Low-Power BOR enable bit
  4884                           ;	LPBOREN = OFF, ULPBOR disabled
  4885                           ;	Brown-out reset enable bits
  4886                           ;	BOREN = ON, Brown-out Reset Enabled, SBOREN bit is ignored
  4887                           ;	Brown-out Reset Voltage Selection
  4888                           ;	BORV = LO, Brown-out Reset Voltage (VBOR) set to 1.9V on LF, and 2.45V on F Devices
  4889                           ;	Zero-cross detect disable
  4890                           ;	ZCD = OFF, Zero-cross detect circuit is disabled at POR.
  4891                           ;	Peripheral Pin Select one-way control
  4892                           ;	PPS1WAY = ON, The PPSLOCK bit can be cleared and set only once in software
  4893                           ;	Stack Overflow/Underflow Reset Enable bit
  4894                           ;	STVREN = ON, Stack Overflow or Underflow will cause a reset
  4895                           ;	Background Debugger
  4896                           ;	DEBUG = OFF, Background Debugger disabled
  4897  8008                     	org	32776
  4898  8008  3FFF               	dw	16383
  4899                           
  4900                           ;Config register CONFIG3 @ 0x8009
  4901                           ;	WDT Period Select bits
  4902                           ;	WDTCPS = WDTCPS_31, Divider ratio 1:65536; software control of WDTPS
  4903                           ;	WDT operating mode
  4904                           ;	WDTE = OFF, WDT Disabled, SWDTEN is ignored
  4905                           ;	WDT Window Select bits
  4906                           ;	WDTCWS = WDTCWS_7, window always open (100%); software control; keyed access not requi
      +                          red
  4907                           ;	WDT input clock selector
  4908                           ;	WDTCCS = SC, Software Control
  4909  8009                     	org	32777
  4910  8009  3F9F               	dw	16287
  4911                           
  4912                           ;Config register CONFIG4 @ 0x800A
  4913                           ;	UserNVM self-write protection bits
  4914                           ;	WRT = OFF, Write protection off
  4915                           ;	Scanner Enable bit
  4916                           ;	SCANE = available, Scanner module is available for use
  4917                           ;	Low Voltage Programming Enable bit
  4918                           ;	LVP = ON, Low Voltage programming enabled. MCLR/Vpp pin function is MCLR.
  4919  800A                     	org	32778
  4920  800A  3FFF               	dw	16383
  4921                           
  4922                           ;Config register CONFIG5 @ 0x800B
  4923                           ;	UserNVM Program memory code protection bit
  4924                           ;	CP = OFF, Program Memory code protection disabled
  4925                           ;	DataNVM code protection bit
  4926                           ;	CPD = OFF, Data EEPROM code protection disabled
  4927  800B                     	org	32779
  4928  800B  3FFF               	dw	16383

Data Sizes:
    Strings     99
    Constant    0
    Data        0
    BSS         14
    Persistent  32
    Stack       0

Auto Spaces:
    Space          Size  Autos    Used
    COMMON           14     14      14
    BANK0            80     41      55
    BANK1            80      0       0
    BANK2            80      0       0
    BANK3            80      0       0
    BANK4            80      0       0
    BANK5            80      0       0
    BANK6            80      0       0
    BANK7            80      0       0
    BANK8            80      0       0
    BANK9            80      0       0
    BANK10           80      0       0
    BANK11           80      0       0
    BANK12           80      0       0
    BANK13           80      0       0
    BANK14           80      0       0
    BANK15           80      0       0
    BANK16           80      0       0
    BANK17           80      0       0
    BANK18           80      0       0
    BANK19           80      0       0
    BANK20           80      0       0
    BANK21           80      0       0
    BANK22           80      0       0
    BANK23           80      0       0
    BANK24           80      0       0
    BANK25           80      0       0
    BANK26           80      0       0
    BANK27           80      0       0
    BANK28           80      0       0
    BANK29           80      0       0
    BANK30           80      0       0
    BANK31           80      0       0
    BANK32           80      0       0
    BANK33           80      0       0
    BANK34           80      0       0
    BANK35           80      0       0
    BANK36           80      0       0
    BANK37           80      0       0
    BANK38           80      0       0
    BANK39           80      0       0
    BANK40           80      0       0
    BANK41           80      0       0
    BANK42           80      0       0
    BANK43           80      0       0
    BANK44           80      0       0
    BANK45           80      0       0
    BANK46           80      0       0
    BANK47           80      0       0
    BANK48           80      0       0
    BANK49           80      0       0
    BANK50           80      0       0

Pointer List with Targets:

    sp__itoa	PTR unsigned char  size(1) Largest target is 12
		 -> itoa@buffer(BANK0[12]), 

    send_string@st_pt	PTR unsigned char  size(2) Largest target is 34
		 -> STR_8(CODE[15]), STR_7(CODE[3]), STR_6(CODE[19]), STR_5(CODE[5]), 
		 -> STR_4(CODE[10]), STR_3(CODE[4]), STR_2(CODE[12]), STR_1(CODE[34]), 
		 -> itoa@buffer(BANK0[12]), 


Critical Paths under _main in COMMON

    _main->___xxtofl
    _main->_set_pwm_dc
    _set_pwm_dc->_dpsw_to_dc
    _send_string->_itoa
    _itoa->___awdiv
    _dpsw_to_dc->___awdiv
    ___fltol->___xxtofl
    ___flmul->___xxtofl

Critical Paths under _main in BANK0

    _main->___fltol
    _set_pwm_dc->_dpsw_to_dc
    _send_string->_itoa
    ___fltol->___flmul

Critical Paths under _main in BANK1

    None.

Critical Paths under _main in BANK2

    None.

Critical Paths under _main in BANK3

    None.

Critical Paths under _main in BANK4

    None.

Critical Paths under _main in BANK5

    None.

Critical Paths under _main in BANK6

    None.

Critical Paths under _main in BANK7

    None.

Critical Paths under _main in BANK8

    None.

Critical Paths under _main in BANK9

    None.

Critical Paths under _main in BANK10

    None.

Critical Paths under _main in BANK11

    None.

Critical Paths under _main in BANK12

    None.

Critical Paths under _main in BANK13

    None.

Critical Paths under _main in BANK14

    None.

Critical Paths under _main in BANK15

    None.

Critical Paths under _main in BANK16

    None.

Critical Paths under _main in BANK17

    None.

Critical Paths under _main in BANK18

    None.

Critical Paths under _main in BANK19

    None.

Critical Paths under _main in BANK20

    None.

Critical Paths under _main in BANK21

    None.

Critical Paths under _main in BANK22

    None.

Critical Paths under _main in BANK23

    None.

Critical Paths under _main in BANK24

    None.

Critical Paths under _main in BANK25

    None.

Critical Paths under _main in BANK26

    None.

Critical Paths under _main in BANK27

    None.

Critical Paths under _main in BANK28

    None.

Critical Paths under _main in BANK29

    None.

Critical Paths under _main in BANK30

    None.

Critical Paths under _main in BANK31

    None.

Critical Paths under _main in BANK32

    None.

Critical Paths under _main in BANK33

    None.

Critical Paths under _main in BANK34

    None.

Critical Paths under _main in BANK35

    None.

Critical Paths under _main in BANK36

    None.

Critical Paths under _main in BANK37

    None.

Critical Paths under _main in BANK38

    None.

Critical Paths under _main in BANK39

    None.

Critical Paths under _main in BANK40

    None.

Critical Paths under _main in BANK41

    None.

Critical Paths under _main in BANK42

    None.

Critical Paths under _main in BANK43

    None.

Critical Paths under _main in BANK44

    None.

Critical Paths under _main in BANK45

    None.

Critical Paths under _main in BANK46

    None.

Critical Paths under _main in BANK47

    None.

Critical Paths under _main in BANK48

    None.

Critical Paths under _main in BANK49

    None.

Critical Paths under _main in BANK50

    None.

Call Graph Tables:

 ---------------------------------------------------------------------------------
 (Depth) Function   	        Calls       Base Space   Used Autos Params    Refs
 ---------------------------------------------------------------------------------
 (0) _main                                                 4     4      0    7644
                                             37 BANK0      4     4      0
                            ___flmul
                            ___fltol
                           ___xxtofl
                          _calcAngle
                         _cfg_eusart
                            _cfg_pwm
                         _dpsw_to_dc
                               _itoa
                   _ranging_sys_init
                        _send_string
                         _set_pwm_dc
 ---------------------------------------------------------------------------------
 (1) _set_pwm_dc                                           3     1      2     142
                                             11 COMMON     3     1      2
                         _dpsw_to_dc (ARG)
 ---------------------------------------------------------------------------------
 (1) _send_string                                          3     1      2     903
                                             12 COMMON     1     1      0
                                              4 BANK0      2     0      2
                          _calcAngle (ARG)
                               _itoa (ARG)
                          _send_char
 ---------------------------------------------------------------------------------
 (2) _send_char                                            1     1      0      22
                                              0 COMMON     1     1      0
 ---------------------------------------------------------------------------------
 (1) _ranging_sys_init                                     0     0      0       0
 ---------------------------------------------------------------------------------
 (1) _itoa                                                 7     5      2    1678
                                              9 COMMON     3     1      2
                                              0 BANK0      4     4      0
                            ___awdiv
                            ___awmod
                          _calcAngle (ARG)
 ---------------------------------------------------------------------------------
 (1) _dpsw_to_dc                                          22    20      2    1750
                                              9 COMMON     2     0      2
                                              0 BANK0     20    20      0
                            ___awdiv
                            ___awmod
                             ___wmul
 ---------------------------------------------------------------------------------
 (2) ___wmul                                               6     2      4     244
                                              0 COMMON     6     2      4
 ---------------------------------------------------------------------------------
 (2) ___awmod                                              7     3      4     600
                                              0 COMMON     7     3      4
 ---------------------------------------------------------------------------------
 (2) ___awdiv                                              9     5      4     604
                                              0 COMMON     9     5      4
 ---------------------------------------------------------------------------------
 (1) _cfg_pwm                                              0     0      0       0
 ---------------------------------------------------------------------------------
 (1) _cfg_eusart                                           0     0      0       0
 ---------------------------------------------------------------------------------
 (1) _calcAngle                                            4     2      2      27
                                              0 COMMON     4     2      2
 ---------------------------------------------------------------------------------
 (1) ___xxtofl                                            14    10      4     398
                                              0 COMMON    14    10      4
 ---------------------------------------------------------------------------------
 (1) ___fltol                                             11     7      4     305
                                             26 BANK0     11     7      4
                            ___flmul (ARG)
                           ___xxtofl (ARG)
 ---------------------------------------------------------------------------------
 (1) ___flmul                                             26    18      8    2417
                                              0 BANK0     26    18      8
                          __Umul8_16
                           ___xxtofl (ARG)
 ---------------------------------------------------------------------------------
 (2) __Umul8_16                                            9     7      2     799
                                              0 COMMON     9     7      2
 ---------------------------------------------------------------------------------
 Estimated maximum stack depth 2
 ---------------------------------------------------------------------------------

 Call Graph Graphs:

 _main (ROOT)
   ___flmul
     __Umul8_16
     ___xxtofl (ARG)
   ___fltol
     ___flmul (ARG)
     ___xxtofl (ARG)
   ___xxtofl
   _calcAngle
   _cfg_eusart
   _cfg_pwm
   _dpsw_to_dc
     ___awdiv
     ___awmod
     ___wmul
   _itoa
     ___awdiv
     ___awmod
     _calcAngle (ARG)
   _ranging_sys_init
   _send_string
     _calcAngle (ARG)
     _itoa (ARG)
     _send_char (ARG)
   _set_pwm_dc
     _dpsw_to_dc (ARG)

 Address spaces:
Name               Size   Autos  Total    Cost      Usage
BIGRAM             FF0      0       0       0        0.0%
EEDATA             100      0       0       0        0.0%
NULL                 0      0       0       0        0.0%
CODE                 0      0       0       0        0.0%
BITCOMMON            E      0       0       1        0.0%
BITSFR0              0      0       0       1        0.0%
SFR0                 0      0       0       1        0.0%
COMMON               E      E       E       2      100.0%
BITSFR1              0      0       0       2        0.0%
SFR1                 0      0       0       2        0.0%
BITSFR2              0      0       0       3        0.0%
SFR2                 0      0       0       3        0.0%
STACK                0      0       0       3        0.0%
BITBANK0            50      0       0       4        0.0%
BITSFR3              0      0       0       4        0.0%
SFR3                 0      0       0       4        0.0%
BANK0               50     29      37       5       68.8%
BITSFR4              0      0       0       5        0.0%
SFR4                 0      0       0       5        0.0%
BITBANK1            50      0       0       6        0.0%
BITSFR5              0      0       0       6        0.0%
SFR5                 0      0       0       6        0.0%
BANK1               50      0       0       7        0.0%
BITSFR6              0      0       0       7        0.0%
SFR6                 0      0       0       7        0.0%
BITBANK2            50      0       0       8        0.0%
BITSFR7              0      0       0       8        0.0%
SFR7                 0      0       0       8        0.0%
BANK2               50      0       0       9        0.0%
BITSFR8              0      0       0       9        0.0%
SFR8                 0      0       0       9        0.0%
BITBANK3            50      0       0      10        0.0%
BITSFR9              0      0       0      10        0.0%
SFR9                 0      0       0      10        0.0%
BANK3               50      0       0      11        0.0%
BITSFR10             0      0       0      11        0.0%
SFR10                0      0       0      11        0.0%
BITBANK4            50      0       0      12        0.0%
BITSFR11             0      0       0      12        0.0%
SFR11                0      0       0      12        0.0%
BANK4               50      0       0      13        0.0%
BITSFR12             0      0       0      13        0.0%
SFR12                0      0       0      13        0.0%
BITBANK5            50      0       0      14        0.0%
BITSFR13             0      0       0      14        0.0%
SFR13                0      0       0      14        0.0%
BANK5               50      0       0      15        0.0%
BITSFR14             0      0       0      15        0.0%
SFR14                0      0       0      15        0.0%
BITBANK6            50      0       0      16        0.0%
BITSFR15             0      0       0      16        0.0%
SFR15                0      0       0      16        0.0%
BANK6               50      0       0      17        0.0%
BITSFR16             0      0       0      17        0.0%
SFR16                0      0       0      17        0.0%
BITBANK7            50      0       0      18        0.0%
BITSFR17             0      0       0      18        0.0%
SFR17                0      0       0      18        0.0%
BANK7               50      0       0      19        0.0%
BITSFR18             0      0       0      19        0.0%
SFR18                0      0       0      19        0.0%
BITBANK8            50      0       0      20        0.0%
BITSFR19             0      0       0      20        0.0%
SFR19                0      0       0      20        0.0%
BANK8               50      0       0      21        0.0%
BITSFR20             0      0       0      21        0.0%
SFR20                0      0       0      21        0.0%
BITBANK9            50      0       0      22        0.0%
BITSFR21             0      0       0      22        0.0%
SFR21                0      0       0      22        0.0%
BANK9               50      0       0      23        0.0%
BITSFR22             0      0       0      23        0.0%
SFR22                0      0       0      23        0.0%
BITBANK10           50      0       0      24        0.0%
BITSFR23             0      0       0      24        0.0%
SFR23                0      0       0      24        0.0%
BANK10              50      0       0      25        0.0%
BITSFR24             0      0       0      25        0.0%
SFR24                0      0       0      25        0.0%
BITBANK11           50      0       0      26        0.0%
BITSFR25             0      0       0      26        0.0%
SFR25                0      0       0      26        0.0%
BANK11              50      0       0      27        0.0%
BITSFR26             0      0       0      27        0.0%
SFR26                0      0       0      27        0.0%
BITSFR27             0      0       0      28        0.0%
SFR27                0      0       0      28        0.0%
ABS                  0      0      45      28        0.0%
BITBANK12           50      0       0      29        0.0%
BITSFR28             0      0       0      29        0.0%
SFR28                0      0       0      29        0.0%
BANK12              50      0       0      30        0.0%
BITSFR29             0      0       0      30        0.0%
SFR29                0      0       0      30        0.0%
BITBANK13           50      0       0      31        0.0%
BITSFR30             0      0       0      31        0.0%
SFR30                0      0       0      31        0.0%
BANK13              50      0       0      32        0.0%
BITSFR31             0      0       0      32        0.0%
SFR31                0      0       0      32        0.0%
BITBANK14           50      0       0      33        0.0%
BITSFR32             0      0       0      33        0.0%
SFR32                0      0       0      33        0.0%
BANK14              50      0       0      34        0.0%
BITSFR33             0      0       0      34        0.0%
SFR33                0      0       0      34        0.0%
BITBANK15           50      0       0      35        0.0%
BITSFR34             0      0       0      35        0.0%
SFR34                0      0       0      35        0.0%
BANK15              50      0       0      36        0.0%
BITSFR35             0      0       0      36        0.0%
SFR35                0      0       0      36        0.0%
BITBANK16           50      0       0      37        0.0%
BITSFR36             0      0       0      37        0.0%
SFR36                0      0       0      37        0.0%
BANK16              50      0       0      38        0.0%
BITSFR37             0      0       0      38        0.0%
SFR37                0      0       0      38        0.0%
BITBANK17           50      0       0      39        0.0%
BITSFR38             0      0       0      39        0.0%
SFR38                0      0       0      39        0.0%
BANK17              50      0       0      40        0.0%
BITSFR39             0      0       0      40        0.0%
SFR39                0      0       0      40        0.0%
BITBANK18           50      0       0      41        0.0%
BITSFR40             0      0       0      41        0.0%
SFR40                0      0       0      41        0.0%
BANK18              50      0       0      42        0.0%
BITSFR41             0      0       0      42        0.0%
SFR41                0      0       0      42        0.0%
BITBANK19           50      0       0      43        0.0%
BITSFR42             0      0       0      43        0.0%
SFR42                0      0       0      43        0.0%
BANK19              50      0       0      44        0.0%
BITSFR43             0      0       0      44        0.0%
SFR43                0      0       0      44        0.0%
BITBANK20           50      0       0      45        0.0%
BITSFR44             0      0       0      45        0.0%
SFR44                0      0       0      45        0.0%
BANK20              50      0       0      46        0.0%
BITSFR45             0      0       0      46        0.0%
SFR45                0      0       0      46        0.0%
BITBANK21           50      0       0      47        0.0%
BITSFR46             0      0       0      47        0.0%
SFR46                0      0       0      47        0.0%
BANK21              50      0       0      48        0.0%
BITSFR47             0      0       0      48        0.0%
SFR47                0      0       0      48        0.0%
BITBANK22           50      0       0      49        0.0%
BITSFR48             0      0       0      49        0.0%
SFR48                0      0       0      49        0.0%
BANK22              50      0       0      50        0.0%
BITSFR49             0      0       0      50        0.0%
SFR49                0      0       0      50        0.0%
BITBANK23           50      0       0      51        0.0%
BITSFR50             0      0       0      51        0.0%
SFR50                0      0       0      51        0.0%
BANK23              50      0       0      52        0.0%
BITSFR51             0      0       0      52        0.0%
SFR51                0      0       0      52        0.0%
BITBANK24           50      0       0      53        0.0%
BITSFR52             0      0       0      53        0.0%
SFR52                0      0       0      53        0.0%
BANK24              50      0       0      54        0.0%
BITSFR53             0      0       0      54        0.0%
SFR53                0      0       0      54        0.0%
BITBANK25           50      0       0      55        0.0%
BITSFR54             0      0       0      55        0.0%
SFR54                0      0       0      55        0.0%
BANK25              50      0       0      56        0.0%
BITSFR55             0      0       0      56        0.0%
SFR55                0      0       0      56        0.0%
BITBANK26           50      0       0      57        0.0%
BITSFR56             0      0       0      57        0.0%
SFR56                0      0       0      57        0.0%
BANK26              50      0       0      58        0.0%
BITSFR57             0      0       0      58        0.0%
SFR57                0      0       0      58        0.0%
BITSFR58             0      0       0      59        0.0%
SFR58                0      0       0      59        0.0%
DATA                 0      0      45      59        0.0%
BITBANK27           50      0       0      60        0.0%
BITSFR59             0      0       0      60        0.0%
SFR59                0      0       0      60        0.0%
BANK27              50      0       0      61        0.0%
BITSFR60             0      0       0      61        0.0%
SFR60                0      0       0      61        0.0%
BITBANK28           50      0       0      62        0.0%
BITSFR61             0      0       0      62        0.0%
SFR61                0      0       0      62        0.0%
BANK28              50      0       0      63        0.0%
BITSFR62             0      0       0      63        0.0%
SFR62                0      0       0      63        0.0%
BITBANK29           50      0       0      64        0.0%
BITSFR63             0      0       0      64        0.0%
SFR63                0      0       0      64        0.0%
BANK29              50      0       0      65        0.0%
BITBANK30           50      0       0      66        0.0%
BANK30              50      0       0      67        0.0%
BITBANK31           50      0       0      68        0.0%
BANK31              50      0       0      69        0.0%
BITBANK32           50      0       0      70        0.0%
BANK32              50      0       0      71        0.0%
BITBANK33           50      0       0      72        0.0%
BANK33              50      0       0      73        0.0%
BITBANK34           50      0       0      74        0.0%
BANK34              50      0       0      75        0.0%
BITBANK35           50      0       0      76        0.0%
BANK35              50      0       0      77        0.0%
BITBANK36           50      0       0      78        0.0%
BANK36              50      0       0      79        0.0%
BITBANK37           50      0       0      80        0.0%
BANK37              50      0       0      81        0.0%
BITBANK38           50      0       0      82        0.0%
BANK38              50      0       0      83        0.0%
BITBANK39           50      0       0      84        0.0%
BANK39              50      0       0      85        0.0%
BITBANK40           50      0       0      86        0.0%
BANK40              50      0       0      87        0.0%
BITBANK41           50      0       0      88        0.0%
BANK41              50      0       0      89        0.0%
BITBANK42           50      0       0      90        0.0%
BANK42              50      0       0      91        0.0%
BITBANK43           50      0       0      92        0.0%
BANK43              50      0       0      93        0.0%
BITBANK44           50      0       0      94        0.0%
BANK44              50      0       0      95        0.0%
BITBANK45           50      0       0      96        0.0%
BANK45              50      0       0      97        0.0%
BITBANK46           50      0       0      98        0.0%
BANK46              50      0       0      99        0.0%
BITBANK47           50      0       0     100        0.0%
BANK47              50      0       0     101        0.0%
BITBANK48           50      0       0     102        0.0%
BANK48              50      0       0     103        0.0%
BITBANK49           50      0       0     104        0.0%
BANK49              50      0       0     105        0.0%
BITBANK50           50      0       0     106        0.0%
BANK50              50      0       0     107        0.0%


Microchip Technology PIC Macro Assembler V2.32 build 20210201212658 
Symbol Table                                                                                   Thu Jul 29 08:15:26 2021

                        _a 0049                         l81 00BF                         l90 0109  
                       l75 00D8                         l84 00C7                         l93 00F0  
                       l78 016F                         l96 01A3                         l98 01B0  
             ___awdiv@sign 0076        ___wmul@multiplicand 0072        __Umul8_16@word_mpld 0076  
                      l102 01C3                        l125 0258                        l127 026B  
                      l136 0194                        l160 04C1                        l321 0128  
                      l162 04C5                        l148 03DA                        l157 04BC  
                      l319 0114                        l159 04C0                        l520 032A  
                      l513 033F                        l523 033F                        l472 02CA  
                      l722 0770                        l716 07F4                        l485 0216  
                      l735 013B                        l728 07E8                        l760 03FD  
                      l737 014B                        l762 0486                        l773 0452  
                      l774 045E                        l766 0438                        _RA0 0060  
                      _RA1 0061                        _RB0 0068                        _RA2 0062  
                      _RB1 0069                        _RA3 0063                        _PR2 028D  
             ___awmod@sign 0076                        wreg 0009               ___flmul@aexp 0032  
             ___flmul@bexp 0033               ___flmul@sign 002D               ___flmul@temp 0038  
             ___flmul@prod 0034               _BAUD1CONbits 011F               ___fltol@exp1 0044  
                     l1401 01E2                       l1411 01FD                       l1403 01E7  
                     l1331 0110                       l1323 00BF                       l1501 01B8  
                     l1341 026C                       l1413 0202                       l1405 01EB  
                     l1333 0119                       l1325 00C4                       l1431 0142  
                     l1423 012A                       l1503 01BD                       l1351 027C  
                     l1343 026D                       l1407 01EF                       l1415 0208  
                     l1335 011E                       l1327 010A                       l1511 0220  
                     l1433 0147                       l1425 012C                       l1601 02FE  
                     l1505 01BF                       l1441 00CE                       l1361 0290  
                     l1353 0281                       l1345 0271                       l1417 020D  
                     l1409 01F9                       l1337 0124                       l1329 010C  
                     l1521 0252                       l1513 0221                       l1427 0133  
                     l1603 0302                       l1611 031A                       l1451 00D5  
                     l1443 00D0                       l1371 02B0                       l1363 0295  
                     l1355 0285                       l1347 0276                       l1419 0212  
                     l1523 025D                       l1515 0225                       l1531 017D  
                     l1429 0137                       l1701 06FA                       l1621 0334  
                     l1453 00D6                       l1445 00D2                       l1437 00C8  
                     l1381 02C6                       l1373 02B1                       l1365 0299  
                     l1357 0287                       l1349 0278                       l1541 0345  
                     l1525 0269                       l1517 022A                       l1509 0217  
                     l1461 00F1                       l1533 0181                       l1711 0740  
                     l1703 070F                       l1631 05AD                       l1623 059E  
                     l1455 00D7                       l1447 00D3                       l1439 00CC  
                     l1375 02B6                       l1367 029D                       l1359 028D  
                     l1391 01CE                       l1551 0357                       l1543 034A  
                     l1519 0243                       l1471 00DF                       l1463 00F2  
                     l1535 018E                       l1721 0754                       l1713 0744  
                     l1705 0726                       l1641 05C9                       l1633 05B2  
                     l1625 05A4                       l1617 0321                       l1609 030A  
                     l1801 047D                       l1449 00D4                       l1457 014C  
                     l1369 02AC                       l1377 02BC                       l1393 01D0  
                     l1385 01C4                       l1561 036B                       l1553 035B  
                     l1545 034C                       l1481 00E7                       l1473 00E1  
                     l1465 00FA                       l1537 0191                       l1529 0170  
                     l1731 0775                       l1723 0755                       l1715 0745  
                     l1707 072D                       l1651 05DC                       l1643 05CE  
                     l1635 05B7                       l1627 05A8                       l1619 032F  
                     l1803 047E                       l1491 019A                       l1459 015A  
                     l1379 02C1                       l1395 01D4                       l1387 01C5  
                     l1571 0388                       l1563 036D                       l1555 0360  
                     l1547 0350                       l1539 0340                       l1483 00EB  
                     l1475 00E3                       l1467 00FF                       l1811 049D  
                     l1733 077A                       l1741 07A2                       l1725 0759  
                     l1717 074C                       l1709 0739                       l1661 05F8  
                     l1653 05E1                       l1645 05D2                       l1637 05BF  
                     l1629 05AC                       l1493 019E                       l1397 01D9  
                     l1389 01C9                       l1581 03C8                       l1573 038C  
                     l1565 037F                       l1557 0362                       l1549 0355  
                     l1485 00EC                       l1477 00E4                       l1469 00D9  
                     l1821 04B2                       l1813 04A5                       l1751 07D2  
                     l1743 07AF                       l1735 0782                       l1727 076D  
                     l1719 0750                       l1671 0620                       l1663 05FD  
                     l1655 05E9                       l1647 05D6                       l1639 05C1  
                     l1495 01A7                       l1487 0195                       l1399 01DF  
                     l1583 03D5                       l1575 038C                       l1567 0385  
                     l1559 0366                       l1479 00E5                       l1831 04CA  
                     l1823 04B6                       l1815 04A5                       l1807 0487  
                     l1753 07DF                       l1745 07B9                       l1737 0786  
                     l1681 067B                       l1673 063A                       l1657 05EB  
                     l1649 05D7                       l1593 02E0                       l1497 01AB  
                     l1489 0195                       l1577 0391                       l1841 0526  
                     l1833 04FC                       l1825 04B7                       l1817 04AF  
                     l1809 0490                       l1755 07E3                       l1747 07C7  
                     l1739 079E                       l1691 06AA                       l1683 0682  
                     l1675 0647                       l1667 0606                       l1659 05F3  
                     l1595 02F3                       l1587 02CB                       l1771 0405  
                     l1763 03DC                       l1499 01B4                       l1579 03C4  
                     l1851 056E                       l1843 052E                       l1835 0502  
                     l1827 04BA                       l1819 04B1                       l1757 07E4  
                     l1749 07D0                       l1693 06BE                       l1685 068F  
                     l1677 0661                       l1669 0613                       l1597 02F4  
                     l1589 02D7                       l1781 0425                       l1765 03E1  
                     l1853 057D                       l1845 053D                       l1837 050B  
                     l1829 04C6                       l1759 07EC                       l1695 06C5  
                     l1687 0696                       l1679 066E                       l1599 02FC  
                     l1791 044C                       l1783 0429                       l1775 040E  
                     l1767 03E5                       l1847 0545                       l1839 0518  
                     l1855 0586                       l1697 06D9                       l1689 06A3  
                     l1793 0456                       l1785 0431                       l1777 0413  
                     l1769 03F5                       l1857 058E                       l1849 054D  
                     l1699 06E6                       l1795 0460                       l1787 043F  
                     l1779 041E                       l1797 0474                       l1789 0448  
                     l1799 0479                       STR_1 0800                       STR_2 0844  
                     STR_3 085F                       STR_4 0850                       STR_5 085A  
                     STR_6 0822                       STR_7 0841                       STR_8 0835  
                     u1000 00C4                       u1001 00C3                       u1010 0110  
                     u1011 010F                       u1110 02AC                       u1111 02AB  
                     u1200 01F9                       u1040 0124                       u1105 029E  
                     u1201 01F8                       u1041 0123                       u1025 0115  
                     u1130 02BC                       u1050 0271                       u1131 02BB  
                     u1115 02A8                       u1051 0270                       u1035 011A  
                     u1300 01A7                       u1140 02C1                       u1060 027C  
                     u1220 0208                       u1301 01A6                       u1141 02C0  
                     u1125 02B2                       u1061 027B                       u1221 0207  
                     u1205 01F5                       u1310 01AB                       u1070 028D  
                     u1230 020D                       u1150 01C9                       u1311 01AA  
                     u1071 028C                       u1231 020C                       u1215 01FE  
                     u1151 01C8                       u2007 0594                       u1240 0137  
                     u1320 01B4                       u1160 01D4                       u1400 0350  
                     u1241 0136                       u1321 01B3                       u1161 01D3  
                     u1401 034F                       u1330 01B8                       u1090 029D  
                     u1170 01DF                       u1410 035B                       u1331 01B7  
                     u1091 029C                       u1171 01DE                       u1411 035A  
                     u1260 0147                       u1500 0319                       u1420 0366  
                     u1340 0225                       u1261 0146                       u1501 0318  
                     u1085 0291                       u1421 0365                       u1341 0224  
                     u1510 0320                       u1190 01EF                       u1430 0385  
                     u1350 0258                       u1270 0109                       u1255 013C  
                     u1511 031F                       u1191 01EE                       u1431 0384  
                     u1351 0257                       u1271 0108                       u1600 05E1  
                     u1280 019A                       u1440 03D5                       u1360 025D  
                     u1601 05E0                       u1281 0199                       u1185 01E3  
                     u1441 03D4                       u1361 025C                       u1610 05F8  
                     u1530 032F                       u1450 02D7                       u1290 019E  
                     u1370 017D                       u1611 05F7                       u1531 032E  
                     u1451 02D6                       u1291 019D                       u1371 017C  
                     u1620 05FD                       u1540 0334                       u1460 02ED  
                     u1380 018E                       u1621 05FC                       u1541 0333  
                     u1525 0322                       u1445 03D1                       u1381 018D  
                     u1710 0754                       u1550 05AC                       u1470 0302  
                     u1390 0345                       u1711 0753                       u1551 05AB  
                     u1471 0301                       u1391 0344                       u1375 0179  
                     u1800 07E3                       u1720 0759                       u1560 05B2  
                     u1480 0309                       u1801 07E2                       u1721 0758  
                     u1705 0746                       u1561 05B1                       u1481 0308  
                     u1465 02E9                       u1385 018A                       u1730 076D  
                     u1650 0705                       u1570 05B7                       u1810 03E1  
                     u1731 076C                       u1635 067C                       u1571 05B6  
                     u1811 03E0                       u1740 0774                       u1660 071C  
                     u1580 05D6                       u1900 0452                       u1820 03E5  
                     u1741 0773                       u1645 06AB                       u1581 05D5  
                     u1901 0451                       u1821 03E4                       u1750 077A  
                     u1590 05DC                       u1910 0456                       u1830 0405  
                     u1751 0779                       u1655 0701                       u1591 05DB  
                     u1495 030B                       u1911 0455                       u1831 0404  
                     u1760 0786                       u1920 046A                       u1761 0785  
                     u1665 0718                       u1770 0794                       u1690 0744  
                     u1930 0479                       u1850 0424                       u1691 0743  
                     u1675 0727                       u1931 0478                       u1851 0423  
                     u1780 07AF                       u1940 047D                       u1781 07AE  
                     u1685 073A                       u1941 047C                       u1925 0466  
                     u1845 0418                       u1790 07C7                       u1870 043E  
                     u1950 04C0                       u1791 07C6                       u1775 0790  
                     u1871 043D                       u1951 04BF                       u1960 04C5  
                     u1785 07AB                       u1865 0432                       u1961 04C4  
                     u1890 044C                       u1970 0518                       u1795 07C3  
                     u1891 044B                       u1971 0517                       u1980 0526  
                     u1885 0442                       u1981 0525                       u1975 0514  
                     u1985 0522                       u1997 0496                       _TXIF 387C  
                     _main 0487                       _itoa 0217                       fsr0h 0005  
                     fsr1h 0007                       indf0 0000                       fsr0l 0004  
                     indf1 0001                       fsr1l 0006                       btemp 007E  
                     start 0002              ___fltol@sign1 0043                      ?_main 0070  
                    ?_itoa 0079            __end_of___awdiv 02CB            __end_of___awmod 0217  
          __end_of___flmul 07F5            __end_of___fltol 0340            ___awdiv@divisor 0070  
                    _T2CON 028E            ___awdiv@counter 0075                      _TMR0H 001D  
                    _TMR0L 001C            __end_of_cfg_pwm 0170                      _TXREG 011A  
                    itoa@c 0022                      status 0003                      wtemp0 007E  
          __initialization 07F5               __end_of_main 059E               __end_of_itoa 026C  
                   ??_main 0045                     ??_itoa 007B                     _CCPR2H 0311  
                   _CCPR2L 0310           ___awdiv@dividend 0072                     _ANSELB 1F43  
                   _RB5PPS 1F1D                     _RC6PPS 1F26               ?_send_string 0024  
         __end_of___xxtofl 0487                     ___wmul 010A                  ??___awdiv 0074  
                ??___awmod 0074                  ??___flmul 0028                  ??___fltol 003E  
                ??_cfg_pwm 0070           ___awdiv@quotient 0077            ___awmod@divisor 0070  
          ___awmod@counter 0075                     main@dc 0047   __end_of_ranging_sys_init 00F1  
       __size_of__Umul8_16 0023               ___xxtofl@arg 007A               ___xxtofl@exp 0079  
             ___xxtofl@val 0070    __end_of__initialization 07FD         __size_of_calcAngle 002F  
               ___fltol@f1 003A             __pcstackCOMMON 0070                 _cfg_eusart 00C8  
               __pbssBANK0 0049          __end_of__Umul8_16 014C                 __pmaintext 0487  
                  ?___wmul 0070         __size_of_send_char 000A                    _CCP2CON 0312  
        __end_of_calcAngle 01C4                  ?___xxtofl 0070                    _SP1BRGH 011C  
                  _SP1BRGL 011B               dpsw_to_dc@d0 0024               dpsw_to_dc@d1 0026  
             dpsw_to_dc@d2 0028               dpsw_to_dc@d3 002A       __size_of_send_string 0019  
               _dpsw_to_dc 0340                    ___awdiv 026C                    ___awmod 01C4  
                  ___flmul 059E                    ___fltol 02CB            __size_of___wmul 001F  
                  _cfg_pwm 014C                    __ptext1 0170                    __ptext2 00F1  
                  __ptext3 00BE                    __ptext4 00D9                    __ptext5 0217  
                  __ptext6 0340                    __ptext7 010A                    __ptext8 01C4  
                  __ptext9 026C                 ??___xxtofl 0074           ___awmod@dividend 0072  
                  clrloop0 00B9                ?_cfg_eusart 0070       end_of_initialization 07FD  
        __end_of_send_char 00C8         dpsw_to_dc@binary_d 0032                 _set_pwm_dc 0170  
             itoa@original 0020              send_char@word 0070                  _PORTBbits 000D  
        ?_ranging_sys_init 0070              ___xxtofl@sign 0078                  _TRISAbits 0011  
                _TRISBbits 0012                  _TRISCbits 0013         ??_ranging_sys_init 0070  
           calcAngle@angle 0072         dpsw_to_dc@num_base 002E                ___flmul@grs 002E  
              ?_dpsw_to_dc 0079             __end_of___wmul 0129        __size_of_cfg_eusart 0011  
      start_initialization 07F5                ?_set_pwm_dc 007B                   ??___wmul 0074  
                __Umul8_16 0129                 itoa@buffer 004B                  ___flmul@a 0024  
                ___flmul@b 0020                  ___latbits 0004              __pcstackBANK0 0020  
        __size_of___xxtofl 00AC                  _calcAngle 0195        __size_of_dpsw_to_dc 009B  
                 ?___awdiv 0070                   ?___awmod 0070                   ?___flmul 0020  
                 ?___fltol 003A                 ?__Umul8_16 0070                   ?_cfg_pwm 0070  
                 _CCPTMRS0 021E                 ?_calcAngle 0070               ??_cfg_eusart 0070  
                 _T2CLKCON 0290        __size_of_set_pwm_dc 0025              ??_send_string 007C  
           ___wmul@product 0074                   _LATBbits 0017                  clear_ram0 00B8  
    dpsw_to_dc@decimal_num 0030                  _send_char 00BE         __end_of_cfg_eusart 00D9  
        ___wmul@multiplier 0070           send_string@st_pt 0024              dpsw_to_dc@rem 002C  
__size_of_ranging_sys_init 0018                 ?_send_char 0070        __end_of_send_string 010A  
             ??_dpsw_to_dc 0020                ??__Umul8_16 0072                  itoa@value 0079  
         __size_of___awdiv 005F           __size_of___awmod 0053           __size_of___flmul 0257  
         __size_of___fltol 0075           __size_of_cfg_pwm 0024                 _ANSELAbits 1F38  
               _ANSELBbits 1F43                 _ANSELCbits 1F4E                   ___xxtofl 03DB  
               _T0CON0bits 001E                 _T0CON1bits 001F                   __ptext10 014C  
                 __ptext11 00C8                   __ptext12 0195                   __ptext13 03DB  
                 __ptext14 02CB                   __ptext15 059E                   __ptext16 0129  
              ??_calcAngle 0072         __end_of_dpsw_to_dc 03DB              __size_of_main 0117  
            __size_of_itoa 0055                 _RC1STAbits 011D               ??_set_pwm_dc 007D  
       __end_of_set_pwm_dc 0195               set_pwm_dc@dc 007B                _send_string 00F1  
              ??_send_char 0070              __pstringtext1 0800              __pstringtext2 0822  
            __pstringtext3 0835              __pstringtext4 0844              __pstringtext5 0850  
            __pstringtext6 085A              __pstringtext7 085F              __pstringtext8 0000  
   __Umul8_16@multiplicand 0070                 _TX1STAbits 011E       __Umul8_16@multiplier 0078  
         _ranging_sys_init 00D9          __Umul8_16@product 0074  
