

Microchip MPLAB XC8 Assembler V2.32 build 20210201212658 
                                                                                               Sat Jul 31 21:51:15 2021

Microchip MPLAB XC8 C Compiler v2.32 (Free license) build 20210201212658 Og1 
     1                           	processor	16F18877
     2                           	pagewidth 120
     3                           	opt	flic
     4                           	psect	stringtext1,global,class=STRCODE,delta=2,noexec
     5                           	psect	stringtext2,global,class=STRCODE,delta=2,noexec
     6                           	psect	stringtext3,global,class=STRCODE,delta=2,noexec
     7                           	psect	stringtext4,global,class=STRCODE,delta=2,noexec
     8                           	psect	stringtext5,global,class=STRCODE,delta=2,noexec
     9                           	psect	stringtext6,global,class=STRCODE,delta=2,noexec
    10                           	psect	stringtext7,global,class=STRCODE,delta=2,noexec
    11                           	psect	stringtext8,global,class=STRCODE,delta=2,noexec
    12                           	psect	cinit,global,class=CODE,merge=1,delta=2
    13                           	psect	bssBANK0,global,class=BANK0,space=1,delta=1,noexec
    14                           	psect	clrtext,global,class=CODE,delta=2
    15                           	psect	cstackCOMMON,global,class=COMMON,space=1,delta=1,noexec
    16                           	psect	cstackBANK0,global,class=BANK0,space=1,delta=1,noexec
    17                           	psect	maintext,global,class=CODE,merge=1,split=1,delta=2
    18                           	psect	text1,local,class=CODE,merge=1,delta=2
    19                           	psect	text2,local,class=CODE,merge=1,delta=2
    20                           	psect	text3,local,class=CODE,merge=1,delta=2
    21                           	psect	text4,local,class=CODE,merge=1,delta=2
    22                           	psect	text5,local,class=CODE,merge=1,delta=2
    23                           	psect	text6,local,class=CODE,merge=1,delta=2
    24                           	psect	text7,local,class=CODE,merge=1,delta=2,group=1
    25                           	psect	text8,local,class=CODE,merge=1,delta=2,group=1
    26                           	psect	text9,local,class=CODE,merge=1,delta=2,group=1
    27                           	psect	text10,local,class=CODE,merge=1,delta=2
    28                           	psect	text11,local,class=CODE,merge=1,delta=2
    29                           	psect	text12,local,class=CODE,merge=1,delta=2
    30                           	psect	text13,local,class=CODE,merge=1,delta=2,group=1
    31                           	psect	config,global,abs,ovrld,class=CONFIG,space=4,delta=2,noexec
    32                           	dabs	1,0x7E,2
    33  0000                     
    34                           ; Version 2.30
    35                           ; Generated 15/09/2020 GMT
    36                           ; 
    37                           ; Copyright © 2020, Microchip Technology Inc. and its subsidiaries ("Microchip")
    38                           ; All rights reserved.
    39                           ; 
    40                           ; This software is developed by Microchip Technology Inc. and its subsidiaries ("Microch
      +                          ip").
    41                           ; 
    42                           ; Redistribution and use in source and binary forms, with or without modification, are
    43                           ; permitted provided that the following conditions are met:
    44                           ; 
    45                           ;     1. Redistributions of source code must retain the above copyright notice, this lis
      +                          t of
    46                           ;        conditions and the following disclaimer.
    47                           ; 
    48                           ;     2. Redistributions in binary form must reproduce the above copyright notice, this 
      +                          list
    49                           ;        of conditions and the following disclaimer in the documentation and/or other
    50                           ;        materials provided with the distribution. Publication is not required when
    51                           ;        this file is used in an embedded application.
    52                           ; 
    53                           ;     3. Microchip's name may not be used to endorse or promote products derived from th
      +                          is
    54                           ;        software without specific prior written permission.
    55                           ; 
    56                           ; THIS SOFTWARE IS PROVIDED BY MICROCHIP "AS IS" AND ANY EXPRESS OR IMPLIED WARRANTIES,
    57                           ; INCLUDING, BUT NOT LIMITED TO, THE IMPLIED WARRANTIES OF MERCHANTABILITY AND FITNESS F
      +                          OR
    58                           ; PURPOSE ARE DISCLAIMED.  IN NO EVENT SHALL MICROCHIP BE LIABLE FOR ANY DIRECT, INDIREC
      +                          T,
    59                           ; INCIDENTAL, SPECIAL, EXEMPLARY, OR CONSEQUENTIAL DAMAGES (INCLUDING BUT NOT LIMITED TO
    60                           ; PROCUREMENT OF SUBSTITUTE GOODS OR SERVICES; LOSS OF USE, DATA OR PROFITS; OR BUSINESS
    61                           ; INTERRUPTION) HOWSOEVER CAUSED AND ON ANY THEORY OF LIABILITY, WHETHER IN CONTRACT, ST
      +                          RICT
    62                           ; LIABILITY, OR TORT (INCLUDING NEGLIGENCE OR OTHERWISE) ARISING IN ANY WAY OUT OF THE U
      +                          SE OF
    63                           ; THIS SOFTWARE, EVEN IF ADVISED OF THE POSSIBILITY OF SUCH DAMAGE.
    64                           ; 
    65                           ; 
    66                           ; Code-generator required, PIC16F18877 Definitions
    67                           ; 
    68                           ; SFR Addresses
    69  0000                     	;# 
    70  0001                     	;# 
    71  0002                     	;# 
    72  0003                     	;# 
    73  0004                     	;# 
    74  0005                     	;# 
    75  0006                     	;# 
    76  0007                     	;# 
    77  0008                     	;# 
    78  0009                     	;# 
    79  000A                     	;# 
    80  000B                     	;# 
    81  000C                     	;# 
    82  000D                     	;# 
    83  000E                     	;# 
    84  000F                     	;# 
    85  0010                     	;# 
    86  0011                     	;# 
    87  0012                     	;# 
    88  0013                     	;# 
    89  0014                     	;# 
    90  0015                     	;# 
    91  0016                     	;# 
    92  0017                     	;# 
    93  0018                     	;# 
    94  0019                     	;# 
    95  001A                     	;# 
    96  001C                     	;# 
    97  001C                     	;# 
    98  001D                     	;# 
    99  001D                     	;# 
   100  001E                     	;# 
   101  001F                     	;# 
   102  008C                     	;# 
   103  008C                     	;# 
   104  008D                     	;# 
   105  008E                     	;# 
   106  008E                     	;# 
   107  008F                     	;# 
   108  0090                     	;# 
   109  0090                     	;# 
   110  0091                     	;# 
   111  0093                     	;# 
   112  0094                     	;# 
   113  0095                     	;# 
   114  0096                     	;# 
   115  0097                     	;# 
   116  0098                     	;# 
   117  0099                     	;# 
   118  009A                     	;# 
   119  009B                     	;# 
   120  009C                     	;# 
   121  009D                     	;# 
   122  009E                     	;# 
   123  010C                     	;# 
   124  010D                     	;# 
   125  010E                     	;# 
   126  010E                     	;# 
   127  010F                     	;# 
   128  0110                     	;# 
   129  0110                     	;# 
   130  0111                     	;# 
   131  0112                     	;# 
   132  0112                     	;# 
   133  0113                     	;# 
   134  0114                     	;# 
   135  0114                     	;# 
   136  0115                     	;# 
   137  0116                     	;# 
   138  0116                     	;# 
   139  0117                     	;# 
   140  0119                     	;# 
   141  0119                     	;# 
   142  0119                     	;# 
   143  011A                     	;# 
   144  011A                     	;# 
   145  011A                     	;# 
   146  011B                     	;# 
   147  011B                     	;# 
   148  011B                     	;# 
   149  011B                     	;# 
   150  011B                     	;# 
   151  011C                     	;# 
   152  011C                     	;# 
   153  011C                     	;# 
   154  011D                     	;# 
   155  011D                     	;# 
   156  011D                     	;# 
   157  011E                     	;# 
   158  011E                     	;# 
   159  011E                     	;# 
   160  011F                     	;# 
   161  011F                     	;# 
   162  011F                     	;# 
   163  011F                     	;# 
   164  011F                     	;# 
   165  018C                     	;# 
   166  018D                     	;# 
   167  018E                     	;# 
   168  018F                     	;# 
   169  0190                     	;# 
   170  0191                     	;# 
   171  0192                     	;# 
   172  0196                     	;# 
   173  0197                     	;# 
   174  0198                     	;# 
   175  0199                     	;# 
   176  019A                     	;# 
   177  019B                     	;# 
   178  019C                     	;# 
   179  020C                     	;# 
   180  020C                     	;# 
   181  020D                     	;# 
   182  020E                     	;# 
   183  020F                     	;# 
   184  020F                     	;# 
   185  0210                     	;# 
   186  0210                     	;# 
   187  0211                     	;# 
   188  0211                     	;# 
   189  0212                     	;# 
   190  0212                     	;# 
   191  0213                     	;# 
   192  0214                     	;# 
   193  0215                     	;# 
   194  0215                     	;# 
   195  0216                     	;# 
   196  0216                     	;# 
   197  0217                     	;# 
   198  0217                     	;# 
   199  0218                     	;# 
   200  0218                     	;# 
   201  0219                     	;# 
   202  021A                     	;# 
   203  021B                     	;# 
   204  021B                     	;# 
   205  021C                     	;# 
   206  021C                     	;# 
   207  021D                     	;# 
   208  021D                     	;# 
   209  021E                     	;# 
   210  021F                     	;# 
   211  028C                     	;# 
   212  028C                     	;# 
   213  028D                     	;# 
   214  028D                     	;# 
   215  028E                     	;# 
   216  028F                     	;# 
   217  0290                     	;# 
   218  0290                     	;# 
   219  0291                     	;# 
   220  0292                     	;# 
   221  0292                     	;# 
   222  0293                     	;# 
   223  0293                     	;# 
   224  0294                     	;# 
   225  0295                     	;# 
   226  0296                     	;# 
   227  0296                     	;# 
   228  0297                     	;# 
   229  0298                     	;# 
   230  0298                     	;# 
   231  0299                     	;# 
   232  0299                     	;# 
   233  029A                     	;# 
   234  029B                     	;# 
   235  029C                     	;# 
   236  029C                     	;# 
   237  029D                     	;# 
   238  030C                     	;# 
   239  030C                     	;# 
   240  030D                     	;# 
   241  030E                     	;# 
   242  030F                     	;# 
   243  0310                     	;# 
   244  0310                     	;# 
   245  0311                     	;# 
   246  0312                     	;# 
   247  0313                     	;# 
   248  0314                     	;# 
   249  0314                     	;# 
   250  0315                     	;# 
   251  0316                     	;# 
   252  0317                     	;# 
   253  0318                     	;# 
   254  0318                     	;# 
   255  0319                     	;# 
   256  031A                     	;# 
   257  031B                     	;# 
   258  031C                     	;# 
   259  031C                     	;# 
   260  031D                     	;# 
   261  031E                     	;# 
   262  031F                     	;# 
   263  038C                     	;# 
   264  038C                     	;# 
   265  038D                     	;# 
   266  038E                     	;# 
   267  0390                     	;# 
   268  0390                     	;# 
   269  0391                     	;# 
   270  0392                     	;# 
   271  040C                     	;# 
   272  040D                     	;# 
   273  040E                     	;# 
   274  040F                     	;# 
   275  0410                     	;# 
   276  0411                     	;# 
   277  0416                     	;# 
   278  0416                     	;# 
   279  0417                     	;# 
   280  0418                     	;# 
   281  0418                     	;# 
   282  0419                     	;# 
   283  041A                     	;# 
   284  041A                     	;# 
   285  041B                     	;# 
   286  041C                     	;# 
   287  041C                     	;# 
   288  041D                     	;# 
   289  041E                     	;# 
   290  041F                     	;# 
   291  048C                     	;# 
   292  048C                     	;# 
   293  048D                     	;# 
   294  048E                     	;# 
   295  048F                     	;# 
   296  048F                     	;# 
   297  0490                     	;# 
   298  0491                     	;# 
   299  0492                     	;# 
   300  0492                     	;# 
   301  0493                     	;# 
   302  0494                     	;# 
   303  0495                     	;# 
   304  0495                     	;# 
   305  0496                     	;# 
   306  0497                     	;# 
   307  0498                     	;# 
   308  0499                     	;# 
   309  049A                     	;# 
   310  049B                     	;# 
   311  049C                     	;# 
   312  049D                     	;# 
   313  050C                     	;# 
   314  050C                     	;# 
   315  050D                     	;# 
   316  050E                     	;# 
   317  050F                     	;# 
   318  050F                     	;# 
   319  0510                     	;# 
   320  0511                     	;# 
   321  0512                     	;# 
   322  0512                     	;# 
   323  0513                     	;# 
   324  0514                     	;# 
   325  0515                     	;# 
   326  0515                     	;# 
   327  0516                     	;# 
   328  0517                     	;# 
   329  0518                     	;# 
   330  0519                     	;# 
   331  051A                     	;# 
   332  051B                     	;# 
   333  051C                     	;# 
   334  051D                     	;# 
   335  058C                     	;# 
   336  058C                     	;# 
   337  058D                     	;# 
   338  058E                     	;# 
   339  058F                     	;# 
   340  058F                     	;# 
   341  0590                     	;# 
   342  0591                     	;# 
   343  0592                     	;# 
   344  0593                     	;# 
   345  060C                     	;# 
   346  060D                     	;# 
   347  060E                     	;# 
   348  060F                     	;# 
   349  0610                     	;# 
   350  0611                     	;# 
   351  0612                     	;# 
   352  0613                     	;# 
   353  0614                     	;# 
   354  0616                     	;# 
   355  0617                     	;# 
   356  0618                     	;# 
   357  0619                     	;# 
   358  061A                     	;# 
   359  061B                     	;# 
   360  061C                     	;# 
   361  061D                     	;# 
   362  061E                     	;# 
   363  068C                     	;# 
   364  068D                     	;# 
   365  068E                     	;# 
   366  068F                     	;# 
   367  0690                     	;# 
   368  0691                     	;# 
   369  0692                     	;# 
   370  0693                     	;# 
   371  0694                     	;# 
   372  070C                     	;# 
   373  070D                     	;# 
   374  070E                     	;# 
   375  070F                     	;# 
   376  0710                     	;# 
   377  0711                     	;# 
   378  0712                     	;# 
   379  0713                     	;# 
   380  0714                     	;# 
   381  0716                     	;# 
   382  0717                     	;# 
   383  0718                     	;# 
   384  0719                     	;# 
   385  071A                     	;# 
   386  071B                     	;# 
   387  071C                     	;# 
   388  071D                     	;# 
   389  071E                     	;# 
   390  0796                     	;# 
   391  0797                     	;# 
   392  0798                     	;# 
   393  0799                     	;# 
   394  079A                     	;# 
   395  079B                     	;# 
   396  080C                     	;# 
   397  080D                     	;# 
   398  080E                     	;# 
   399  080F                     	;# 
   400  0810                     	;# 
   401  0811                     	;# 
   402  0812                     	;# 
   403  0813                     	;# 
   404  0814                     	;# 
   405  081A                     	;# 
   406  081B                     	;# 
   407  081C                     	;# 
   408  081D                     	;# 
   409  081E                     	;# 
   410  081F                     	;# 
   411  088C                     	;# 
   412  088D                     	;# 
   413  088E                     	;# 
   414  088F                     	;# 
   415  0890                     	;# 
   416  0891                     	;# 
   417  0892                     	;# 
   418  0893                     	;# 
   419  0895                     	;# 
   420  0896                     	;# 
   421  0897                     	;# 
   422  0898                     	;# 
   423  0899                     	;# 
   424  089A                     	;# 
   425  089B                     	;# 
   426  090C                     	;# 
   427  090E                     	;# 
   428  090F                     	;# 
   429  091F                     	;# 
   430  098F                     	;# 
   431  098F                     	;# 
   432  0990                     	;# 
   433  0991                     	;# 
   434  0992                     	;# 
   435  0993                     	;# 
   436  0994                     	;# 
   437  0995                     	;# 
   438  0996                     	;# 
   439  0997                     	;# 
   440  1E0F                     	;# 
   441  1E10                     	;# 
   442  1E11                     	;# 
   443  1E12                     	;# 
   444  1E13                     	;# 
   445  1E14                     	;# 
   446  1E15                     	;# 
   447  1E16                     	;# 
   448  1E17                     	;# 
   449  1E18                     	;# 
   450  1E19                     	;# 
   451  1E1A                     	;# 
   452  1E1B                     	;# 
   453  1E1C                     	;# 
   454  1E1D                     	;# 
   455  1E1E                     	;# 
   456  1E1F                     	;# 
   457  1E20                     	;# 
   458  1E21                     	;# 
   459  1E22                     	;# 
   460  1E23                     	;# 
   461  1E24                     	;# 
   462  1E25                     	;# 
   463  1E26                     	;# 
   464  1E27                     	;# 
   465  1E28                     	;# 
   466  1E29                     	;# 
   467  1E2A                     	;# 
   468  1E2B                     	;# 
   469  1E2C                     	;# 
   470  1E2D                     	;# 
   471  1E2E                     	;# 
   472  1E2F                     	;# 
   473  1E30                     	;# 
   474  1E31                     	;# 
   475  1E32                     	;# 
   476  1E33                     	;# 
   477  1E34                     	;# 
   478  1E35                     	;# 
   479  1E36                     	;# 
   480  1E37                     	;# 
   481  1E8F                     	;# 
   482  1E90                     	;# 
   483  1E91                     	;# 
   484  1E92                     	;# 
   485  1E93                     	;# 
   486  1E94                     	;# 
   487  1E95                     	;# 
   488  1E96                     	;# 
   489  1E97                     	;# 
   490  1E9C                     	;# 
   491  1E9D                     	;# 
   492  1E9E                     	;# 
   493  1EA1                     	;# 
   494  1EA2                     	;# 
   495  1EA3                     	;# 
   496  1EA4                     	;# 
   497  1EA5                     	;# 
   498  1EA9                     	;# 
   499  1EAA                     	;# 
   500  1EAB                     	;# 
   501  1EAC                     	;# 
   502  1EB1                     	;# 
   503  1EB2                     	;# 
   504  1EB3                     	;# 
   505  1EB8                     	;# 
   506  1EB9                     	;# 
   507  1EBA                     	;# 
   508  1EBB                     	;# 
   509  1EBC                     	;# 
   510  1EBD                     	;# 
   511  1EBE                     	;# 
   512  1EC3                     	;# 
   513  1EC5                     	;# 
   514  1EC6                     	;# 
   515  1EC7                     	;# 
   516  1EC8                     	;# 
   517  1EC9                     	;# 
   518  1ECA                     	;# 
   519  1ECB                     	;# 
   520  1ECC                     	;# 
   521  1F10                     	;# 
   522  1F11                     	;# 
   523  1F12                     	;# 
   524  1F13                     	;# 
   525  1F14                     	;# 
   526  1F15                     	;# 
   527  1F16                     	;# 
   528  1F17                     	;# 
   529  1F18                     	;# 
   530  1F19                     	;# 
   531  1F1A                     	;# 
   532  1F1B                     	;# 
   533  1F1C                     	;# 
   534  1F1D                     	;# 
   535  1F1E                     	;# 
   536  1F1F                     	;# 
   537  1F20                     	;# 
   538  1F21                     	;# 
   539  1F22                     	;# 
   540  1F23                     	;# 
   541  1F24                     	;# 
   542  1F25                     	;# 
   543  1F26                     	;# 
   544  1F27                     	;# 
   545  1F28                     	;# 
   546  1F29                     	;# 
   547  1F2A                     	;# 
   548  1F2B                     	;# 
   549  1F2C                     	;# 
   550  1F2D                     	;# 
   551  1F2E                     	;# 
   552  1F2F                     	;# 
   553  1F30                     	;# 
   554  1F31                     	;# 
   555  1F32                     	;# 
   556  1F38                     	;# 
   557  1F39                     	;# 
   558  1F3A                     	;# 
   559  1F3B                     	;# 
   560  1F3C                     	;# 
   561  1F3D                     	;# 
   562  1F3E                     	;# 
   563  1F3F                     	;# 
   564  1F40                     	;# 
   565  1F41                     	;# 
   566  1F43                     	;# 
   567  1F44                     	;# 
   568  1F45                     	;# 
   569  1F46                     	;# 
   570  1F47                     	;# 
   571  1F48                     	;# 
   572  1F49                     	;# 
   573  1F4A                     	;# 
   574  1F4B                     	;# 
   575  1F4C                     	;# 
   576  1F4E                     	;# 
   577  1F4F                     	;# 
   578  1F50                     	;# 
   579  1F51                     	;# 
   580  1F52                     	;# 
   581  1F53                     	;# 
   582  1F54                     	;# 
   583  1F55                     	;# 
   584  1F56                     	;# 
   585  1F57                     	;# 
   586  1F59                     	;# 
   587  1F5A                     	;# 
   588  1F5B                     	;# 
   589  1F5C                     	;# 
   590  1F5D                     	;# 
   591  1F61                     	;# 
   592  1F62                     	;# 
   593  1F64                     	;# 
   594  1F65                     	;# 
   595  1F66                     	;# 
   596  1F67                     	;# 
   597  1F68                     	;# 
   598  1F69                     	;# 
   599  1F6A                     	;# 
   600  1F6B                     	;# 
   601  1F6C                     	;# 
   602  1F6D                     	;# 
   603  1FE4                     	;# 
   604  1FE5                     	;# 
   605  1FE6                     	;# 
   606  1FE7                     	;# 
   607  1FE8                     	;# 
   608  1FE9                     	;# 
   609  1FEA                     	;# 
   610  1FEB                     	;# 
   611  1FED                     	;# 
   612  1FEE                     	;# 
   613  1FEF                     	;# 
   614  0000                     	;# 
   615  0001                     	;# 
   616  0002                     	;# 
   617  0003                     	;# 
   618  0004                     	;# 
   619  0005                     	;# 
   620  0006                     	;# 
   621  0007                     	;# 
   622  0008                     	;# 
   623  0009                     	;# 
   624  000A                     	;# 
   625  000B                     	;# 
   626  000C                     	;# 
   627  000D                     	;# 
   628  000E                     	;# 
   629  000F                     	;# 
   630  0010                     	;# 
   631  0011                     	;# 
   632  0012                     	;# 
   633  0013                     	;# 
   634  0014                     	;# 
   635  0015                     	;# 
   636  0016                     	;# 
   637  0017                     	;# 
   638  0018                     	;# 
   639  0019                     	;# 
   640  001A                     	;# 
   641  001C                     	;# 
   642  001C                     	;# 
   643  001D                     	;# 
   644  001D                     	;# 
   645  001E                     	;# 
   646  001F                     	;# 
   647  008C                     	;# 
   648  008C                     	;# 
   649  008D                     	;# 
   650  008E                     	;# 
   651  008E                     	;# 
   652  008F                     	;# 
   653  0090                     	;# 
   654  0090                     	;# 
   655  0091                     	;# 
   656  0093                     	;# 
   657  0094                     	;# 
   658  0095                     	;# 
   659  0096                     	;# 
   660  0097                     	;# 
   661  0098                     	;# 
   662  0099                     	;# 
   663  009A                     	;# 
   664  009B                     	;# 
   665  009C                     	;# 
   666  009D                     	;# 
   667  009E                     	;# 
   668  010C                     	;# 
   669  010D                     	;# 
   670  010E                     	;# 
   671  010E                     	;# 
   672  010F                     	;# 
   673  0110                     	;# 
   674  0110                     	;# 
   675  0111                     	;# 
   676  0112                     	;# 
   677  0112                     	;# 
   678  0113                     	;# 
   679  0114                     	;# 
   680  0114                     	;# 
   681  0115                     	;# 
   682  0116                     	;# 
   683  0116                     	;# 
   684  0117                     	;# 
   685  0119                     	;# 
   686  0119                     	;# 
   687  0119                     	;# 
   688  011A                     	;# 
   689  011A                     	;# 
   690  011A                     	;# 
   691  011B                     	;# 
   692  011B                     	;# 
   693  011B                     	;# 
   694  011B                     	;# 
   695  011B                     	;# 
   696  011C                     	;# 
   697  011C                     	;# 
   698  011C                     	;# 
   699  011D                     	;# 
   700  011D                     	;# 
   701  011D                     	;# 
   702  011E                     	;# 
   703  011E                     	;# 
   704  011E                     	;# 
   705  011F                     	;# 
   706  011F                     	;# 
   707  011F                     	;# 
   708  011F                     	;# 
   709  011F                     	;# 
   710  018C                     	;# 
   711  018D                     	;# 
   712  018E                     	;# 
   713  018F                     	;# 
   714  0190                     	;# 
   715  0191                     	;# 
   716  0192                     	;# 
   717  0196                     	;# 
   718  0197                     	;# 
   719  0198                     	;# 
   720  0199                     	;# 
   721  019A                     	;# 
   722  019B                     	;# 
   723  019C                     	;# 
   724  020C                     	;# 
   725  020C                     	;# 
   726  020D                     	;# 
   727  020E                     	;# 
   728  020F                     	;# 
   729  020F                     	;# 
   730  0210                     	;# 
   731  0210                     	;# 
   732  0211                     	;# 
   733  0211                     	;# 
   734  0212                     	;# 
   735  0212                     	;# 
   736  0213                     	;# 
   737  0214                     	;# 
   738  0215                     	;# 
   739  0215                     	;# 
   740  0216                     	;# 
   741  0216                     	;# 
   742  0217                     	;# 
   743  0217                     	;# 
   744  0218                     	;# 
   745  0218                     	;# 
   746  0219                     	;# 
   747  021A                     	;# 
   748  021B                     	;# 
   749  021B                     	;# 
   750  021C                     	;# 
   751  021C                     	;# 
   752  021D                     	;# 
   753  021D                     	;# 
   754  021E                     	;# 
   755  021F                     	;# 
   756  028C                     	;# 
   757  028C                     	;# 
   758  028D                     	;# 
   759  028D                     	;# 
   760  028E                     	;# 
   761  028F                     	;# 
   762  0290                     	;# 
   763  0290                     	;# 
   764  0291                     	;# 
   765  0292                     	;# 
   766  0292                     	;# 
   767  0293                     	;# 
   768  0293                     	;# 
   769  0294                     	;# 
   770  0295                     	;# 
   771  0296                     	;# 
   772  0296                     	;# 
   773  0297                     	;# 
   774  0298                     	;# 
   775  0298                     	;# 
   776  0299                     	;# 
   777  0299                     	;# 
   778  029A                     	;# 
   779  029B                     	;# 
   780  029C                     	;# 
   781  029C                     	;# 
   782  029D                     	;# 
   783  030C                     	;# 
   784  030C                     	;# 
   785  030D                     	;# 
   786  030E                     	;# 
   787  030F                     	;# 
   788  0310                     	;# 
   789  0310                     	;# 
   790  0311                     	;# 
   791  0312                     	;# 
   792  0313                     	;# 
   793  0314                     	;# 
   794  0314                     	;# 
   795  0315                     	;# 
   796  0316                     	;# 
   797  0317                     	;# 
   798  0318                     	;# 
   799  0318                     	;# 
   800  0319                     	;# 
   801  031A                     	;# 
   802  031B                     	;# 
   803  031C                     	;# 
   804  031C                     	;# 
   805  031D                     	;# 
   806  031E                     	;# 
   807  031F                     	;# 
   808  038C                     	;# 
   809  038C                     	;# 
   810  038D                     	;# 
   811  038E                     	;# 
   812  0390                     	;# 
   813  0390                     	;# 
   814  0391                     	;# 
   815  0392                     	;# 
   816  040C                     	;# 
   817  040D                     	;# 
   818  040E                     	;# 
   819  040F                     	;# 
   820  0410                     	;# 
   821  0411                     	;# 
   822  0416                     	;# 
   823  0416                     	;# 
   824  0417                     	;# 
   825  0418                     	;# 
   826  0418                     	;# 
   827  0419                     	;# 
   828  041A                     	;# 
   829  041A                     	;# 
   830  041B                     	;# 
   831  041C                     	;# 
   832  041C                     	;# 
   833  041D                     	;# 
   834  041E                     	;# 
   835  041F                     	;# 
   836  048C                     	;# 
   837  048C                     	;# 
   838  048D                     	;# 
   839  048E                     	;# 
   840  048F                     	;# 
   841  048F                     	;# 
   842  0490                     	;# 
   843  0491                     	;# 
   844  0492                     	;# 
   845  0492                     	;# 
   846  0493                     	;# 
   847  0494                     	;# 
   848  0495                     	;# 
   849  0495                     	;# 
   850  0496                     	;# 
   851  0497                     	;# 
   852  0498                     	;# 
   853  0499                     	;# 
   854  049A                     	;# 
   855  049B                     	;# 
   856  049C                     	;# 
   857  049D                     	;# 
   858  050C                     	;# 
   859  050C                     	;# 
   860  050D                     	;# 
   861  050E                     	;# 
   862  050F                     	;# 
   863  050F                     	;# 
   864  0510                     	;# 
   865  0511                     	;# 
   866  0512                     	;# 
   867  0512                     	;# 
   868  0513                     	;# 
   869  0514                     	;# 
   870  0515                     	;# 
   871  0515                     	;# 
   872  0516                     	;# 
   873  0517                     	;# 
   874  0518                     	;# 
   875  0519                     	;# 
   876  051A                     	;# 
   877  051B                     	;# 
   878  051C                     	;# 
   879  051D                     	;# 
   880  058C                     	;# 
   881  058C                     	;# 
   882  058D                     	;# 
   883  058E                     	;# 
   884  058F                     	;# 
   885  058F                     	;# 
   886  0590                     	;# 
   887  0591                     	;# 
   888  0592                     	;# 
   889  0593                     	;# 
   890  060C                     	;# 
   891  060D                     	;# 
   892  060E                     	;# 
   893  060F                     	;# 
   894  0610                     	;# 
   895  0611                     	;# 
   896  0612                     	;# 
   897  0613                     	;# 
   898  0614                     	;# 
   899  0616                     	;# 
   900  0617                     	;# 
   901  0618                     	;# 
   902  0619                     	;# 
   903  061A                     	;# 
   904  061B                     	;# 
   905  061C                     	;# 
   906  061D                     	;# 
   907  061E                     	;# 
   908  068C                     	;# 
   909  068D                     	;# 
   910  068E                     	;# 
   911  068F                     	;# 
   912  0690                     	;# 
   913  0691                     	;# 
   914  0692                     	;# 
   915  0693                     	;# 
   916  0694                     	;# 
   917  070C                     	;# 
   918  070D                     	;# 
   919  070E                     	;# 
   920  070F                     	;# 
   921  0710                     	;# 
   922  0711                     	;# 
   923  0712                     	;# 
   924  0713                     	;# 
   925  0714                     	;# 
   926  0716                     	;# 
   927  0717                     	;# 
   928  0718                     	;# 
   929  0719                     	;# 
   930  071A                     	;# 
   931  071B                     	;# 
   932  071C                     	;# 
   933  071D                     	;# 
   934  071E                     	;# 
   935  0796                     	;# 
   936  0797                     	;# 
   937  0798                     	;# 
   938  0799                     	;# 
   939  079A                     	;# 
   940  079B                     	;# 
   941  080C                     	;# 
   942  080D                     	;# 
   943  080E                     	;# 
   944  080F                     	;# 
   945  0810                     	;# 
   946  0811                     	;# 
   947  0812                     	;# 
   948  0813                     	;# 
   949  0814                     	;# 
   950  081A                     	;# 
   951  081B                     	;# 
   952  081C                     	;# 
   953  081D                     	;# 
   954  081E                     	;# 
   955  081F                     	;# 
   956  088C                     	;# 
   957  088D                     	;# 
   958  088E                     	;# 
   959  088F                     	;# 
   960  0890                     	;# 
   961  0891                     	;# 
   962  0892                     	;# 
   963  0893                     	;# 
   964  0895                     	;# 
   965  0896                     	;# 
   966  0897                     	;# 
   967  0898                     	;# 
   968  0899                     	;# 
   969  089A                     	;# 
   970  089B                     	;# 
   971  090C                     	;# 
   972  090E                     	;# 
   973  090F                     	;# 
   974  091F                     	;# 
   975  098F                     	;# 
   976  098F                     	;# 
   977  0990                     	;# 
   978  0991                     	;# 
   979  0992                     	;# 
   980  0993                     	;# 
   981  0994                     	;# 
   982  0995                     	;# 
   983  0996                     	;# 
   984  0997                     	;# 
   985  1E0F                     	;# 
   986  1E10                     	;# 
   987  1E11                     	;# 
   988  1E12                     	;# 
   989  1E13                     	;# 
   990  1E14                     	;# 
   991  1E15                     	;# 
   992  1E16                     	;# 
   993  1E17                     	;# 
   994  1E18                     	;# 
   995  1E19                     	;# 
   996  1E1A                     	;# 
   997  1E1B                     	;# 
   998  1E1C                     	;# 
   999  1E1D                     	;# 
  1000  1E1E                     	;# 
  1001  1E1F                     	;# 
  1002  1E20                     	;# 
  1003  1E21                     	;# 
  1004  1E22                     	;# 
  1005  1E23                     	;# 
  1006  1E24                     	;# 
  1007  1E25                     	;# 
  1008  1E26                     	;# 
  1009  1E27                     	;# 
  1010  1E28                     	;# 
  1011  1E29                     	;# 
  1012  1E2A                     	;# 
  1013  1E2B                     	;# 
  1014  1E2C                     	;# 
  1015  1E2D                     	;# 
  1016  1E2E                     	;# 
  1017  1E2F                     	;# 
  1018  1E30                     	;# 
  1019  1E31                     	;# 
  1020  1E32                     	;# 
  1021  1E33                     	;# 
  1022  1E34                     	;# 
  1023  1E35                     	;# 
  1024  1E36                     	;# 
  1025  1E37                     	;# 
  1026  1E8F                     	;# 
  1027  1E90                     	;# 
  1028  1E91                     	;# 
  1029  1E92                     	;# 
  1030  1E93                     	;# 
  1031  1E94                     	;# 
  1032  1E95                     	;# 
  1033  1E96                     	;# 
  1034  1E97                     	;# 
  1035  1E9C                     	;# 
  1036  1E9D                     	;# 
  1037  1E9E                     	;# 
  1038  1EA1                     	;# 
  1039  1EA2                     	;# 
  1040  1EA3                     	;# 
  1041  1EA4                     	;# 
  1042  1EA5                     	;# 
  1043  1EA9                     	;# 
  1044  1EAA                     	;# 
  1045  1EAB                     	;# 
  1046  1EAC                     	;# 
  1047  1EB1                     	;# 
  1048  1EB2                     	;# 
  1049  1EB3                     	;# 
  1050  1EB8                     	;# 
  1051  1EB9                     	;# 
  1052  1EBA                     	;# 
  1053  1EBB                     	;# 
  1054  1EBC                     	;# 
  1055  1EBD                     	;# 
  1056  1EBE                     	;# 
  1057  1EC3                     	;# 
  1058  1EC5                     	;# 
  1059  1EC6                     	;# 
  1060  1EC7                     	;# 
  1061  1EC8                     	;# 
  1062  1EC9                     	;# 
  1063  1ECA                     	;# 
  1064  1ECB                     	;# 
  1065  1ECC                     	;# 
  1066  1F10                     	;# 
  1067  1F11                     	;# 
  1068  1F12                     	;# 
  1069  1F13                     	;# 
  1070  1F14                     	;# 
  1071  1F15                     	;# 
  1072  1F16                     	;# 
  1073  1F17                     	;# 
  1074  1F18                     	;# 
  1075  1F19                     	;# 
  1076  1F1A                     	;# 
  1077  1F1B                     	;# 
  1078  1F1C                     	;# 
  1079  1F1D                     	;# 
  1080  1F1E                     	;# 
  1081  1F1F                     	;# 
  1082  1F20                     	;# 
  1083  1F21                     	;# 
  1084  1F22                     	;# 
  1085  1F23                     	;# 
  1086  1F24                     	;# 
  1087  1F25                     	;# 
  1088  1F26                     	;# 
  1089  1F27                     	;# 
  1090  1F28                     	;# 
  1091  1F29                     	;# 
  1092  1F2A                     	;# 
  1093  1F2B                     	;# 
  1094  1F2C                     	;# 
  1095  1F2D                     	;# 
  1096  1F2E                     	;# 
  1097  1F2F                     	;# 
  1098  1F30                     	;# 
  1099  1F31                     	;# 
  1100  1F32                     	;# 
  1101  1F38                     	;# 
  1102  1F39                     	;# 
  1103  1F3A                     	;# 
  1104  1F3B                     	;# 
  1105  1F3C                     	;# 
  1106  1F3D                     	;# 
  1107  1F3E                     	;# 
  1108  1F3F                     	;# 
  1109  1F40                     	;# 
  1110  1F41                     	;# 
  1111  1F43                     	;# 
  1112  1F44                     	;# 
  1113  1F45                     	;# 
  1114  1F46                     	;# 
  1115  1F47                     	;# 
  1116  1F48                     	;# 
  1117  1F49                     	;# 
  1118  1F4A                     	;# 
  1119  1F4B                     	;# 
  1120  1F4C                     	;# 
  1121  1F4E                     	;# 
  1122  1F4F                     	;# 
  1123  1F50                     	;# 
  1124  1F51                     	;# 
  1125  1F52                     	;# 
  1126  1F53                     	;# 
  1127  1F54                     	;# 
  1128  1F55                     	;# 
  1129  1F56                     	;# 
  1130  1F57                     	;# 
  1131  1F59                     	;# 
  1132  1F5A                     	;# 
  1133  1F5B                     	;# 
  1134  1F5C                     	;# 
  1135  1F5D                     	;# 
  1136  1F61                     	;# 
  1137  1F62                     	;# 
  1138  1F64                     	;# 
  1139  1F65                     	;# 
  1140  1F66                     	;# 
  1141  1F67                     	;# 
  1142  1F68                     	;# 
  1143  1F69                     	;# 
  1144  1F6A                     	;# 
  1145  1F6B                     	;# 
  1146  1F6C                     	;# 
  1147  1F6D                     	;# 
  1148  1FE4                     	;# 
  1149  1FE5                     	;# 
  1150  1FE6                     	;# 
  1151  1FE7                     	;# 
  1152  1FE8                     	;# 
  1153  1FE9                     	;# 
  1154  1FEA                     	;# 
  1155  1FEB                     	;# 
  1156  1FED                     	;# 
  1157  1FEE                     	;# 
  1158  1FEF                     	;# 
  1159  000D                     _PORTBbits	set	13
  1160  001C                     _TMR0L	set	28
  1161  001D                     _TMR0H	set	29
  1162  001F                     _T0CON1bits	set	31
  1163  001E                     _T0CON0bits	set	30
  1164  0017                     _LATBbits	set	23
  1165  0012                     _TRISBbits	set	18
  1166  0011                     _TRISAbits	set	17
  1167  0013                     _TRISCbits	set	19
  1168  0063                     _RA3	set	99
  1169  0062                     _RA2	set	98
  1170  0061                     _RA1	set	97
  1171  0060                     _RA0	set	96
  1172  0068                     _RB0	set	104
  1173  0069                     _RB1	set	105
  1174  011A                     _TXREG	set	282
  1175  011D                     _RC1STAbits	set	285
  1176  011E                     _TX1STAbits	set	286
  1177  011F                     _BAUD1CONbits	set	287
  1178  011B                     _SP1BRGL	set	283
  1179  011C                     _SP1BRGH	set	284
  1180  021E                     _CCPTMRS0	set	542
  1181  028E                     _T2CON	set	654
  1182  0290                     _T2CLKCON	set	656
  1183  028D                     _PR2	set	653
  1184  0311                     _CCPR2H	set	785
  1185  0310                     _CCPR2L	set	784
  1186  0312                     _CCP2CON	set	786
  1187  387C                     _TXIF	set	14460
  1188  1F43                     _ANSELB	set	8003
  1189  1F1D                     _RB5PPS	set	7965
  1190  1F43                     _ANSELBbits	set	8003
  1191  1F38                     _ANSELAbits	set	7992
  1192  1F26                     _RC6PPS	set	7974
  1193  1F4E                     _ANSELCbits	set	8014
  1194                           
  1195                           	psect	stringtext1
  1196  0800                     __pstringtext1:
  1197  0800                     STR_1:
  1198  0800  345B               	retlw	91	;'['
  1199  0801  342A               	retlw	42	;'*'
  1200  0802  345D               	retlw	93	;']'
  1201  0803  3453               	retlw	83	;'S'
  1202  0804  3465               	retlw	101	;'e'
  1203  0805  3472               	retlw	114	;'r'
  1204  0806  3469               	retlw	105	;'i'
  1205  0807  3461               	retlw	97	;'a'
  1206  0808  346C               	retlw	108	;'l'
  1207  0809  3420               	retlw	32	;' '
  1208  080A  3443               	retlw	67	;'C'
  1209  080B  346F               	retlw	111	;'o'
  1210  080C  346E               	retlw	110	;'n'
  1211  080D  346E               	retlw	110	;'n'
  1212  080E  3465               	retlw	101	;'e'
  1213  080F  3463               	retlw	99	;'c'
  1214  0810  3474               	retlw	116	;'t'
  1215  0811  3469               	retlw	105	;'i'
  1216  0812  346F               	retlw	111	;'o'
  1217  0813  346E               	retlw	110	;'n'
  1218  0814  3420               	retlw	32	;' '
  1219  0815  3473               	retlw	115	;'s'
  1220  0816  3475               	retlw	117	;'u'
  1221  0817  3463               	retlw	99	;'c'
  1222  0818  3463               	retlw	99	;'c'
  1223  0819  3465               	retlw	101	;'e'
  1224  081A  3473               	retlw	115	;'s'
  1225  081B  3473               	retlw	115	;'s'
  1226  081C  3466               	retlw	102	;'f'
  1227  081D  3475               	retlw	117	;'u'
  1228  081E  346C               	retlw	108	;'l'
  1229  081F  340D               	retlw	13
  1230  0820  340A               	retlw	10
  1231  0821  3400               	retlw	0
  1232                           
  1233                           	psect	stringtext2
  1234  0822                     __pstringtext2:
  1235  0822                     STR_6:
  1236  0822  3409               	retlw	9
  1237  0823  3450               	retlw	80	;'P'
  1238  0824  3457               	retlw	87	;'W'
  1239  0825  344D               	retlw	77	;'M'
  1240  0826  3420               	retlw	32	;' '
  1241  0827  3444               	retlw	68	;'D'
  1242  0828  3475               	retlw	117	;'u'
  1243  0829  3474               	retlw	116	;'t'
  1244  082A  3479               	retlw	121	;'y'
  1245  082B  3420               	retlw	32	;' '
  1246  082C  3443               	retlw	67	;'C'
  1247  082D  3479               	retlw	121	;'y'
  1248  082E  3463               	retlw	99	;'c'
  1249  082F  346C               	retlw	108	;'l'
  1250  0830  3465               	retlw	101	;'e'
  1251  0831  3420               	retlw	32	;' '
  1252  0832  343D               	retlw	61	;'='
  1253  0833  3420               	retlw	32	;' '
  1254  0834  3400               	retlw	0
  1255                           
  1256                           	psect	stringtext3
  1257  0835                     __pstringtext3:
  1258  0835                     STR_8:
  1259  0835  344F               	retlw	79	;'O'
  1260  0836  3475               	retlw	117	;'u'
  1261  0837  3474               	retlw	116	;'t'
  1262  0838  3420               	retlw	32	;' '
  1263  0839  346F               	retlw	111	;'o'
  1264  083A  3466               	retlw	102	;'f'
  1265  083B  3420               	retlw	32	;' '
  1266  083C  3452               	retlw	82	;'R'
  1267  083D  3461               	retlw	97	;'a'
  1268  083E  346E               	retlw	110	;'n'
  1269  083F  3467               	retlw	103	;'g'
  1270  0840  3465               	retlw	101	;'e'
  1271  0841  340D               	retlw	13
  1272  0842  340A               	retlw	10
  1273  0843  3400               	retlw	0
  1274                           
  1275                           	psect	stringtext4
  1276  0844                     __pstringtext4:
  1277  0844                     STR_2:
  1278  0844  3444               	retlw	68	;'D'
  1279  0845  3469               	retlw	105	;'i'
  1280  0846  3473               	retlw	115	;'s'
  1281  0847  3474               	retlw	116	;'t'
  1282  0848  3461               	retlw	97	;'a'
  1283  0849  346E               	retlw	110	;'n'
  1284  084A  3463               	retlw	99	;'c'
  1285  084B  3465               	retlw	101	;'e'
  1286  084C  3420               	retlw	32	;' '
  1287  084D  343D               	retlw	61	;'='
  1288  084E  3420               	retlw	32	;' '
  1289  084F  3400               	retlw	0
  1290                           
  1291                           	psect	stringtext5
  1292  0850                     __pstringtext5:
  1293  0850                     STR_4:
  1294  0850  3409               	retlw	9
  1295  0851  3441               	retlw	65	;'A'
  1296  0852  346E               	retlw	110	;'n'
  1297  0853  3467               	retlw	103	;'g'
  1298  0854  346C               	retlw	108	;'l'
  1299  0855  3465               	retlw	101	;'e'
  1300  0856  3420               	retlw	32	;' '
  1301  0857  343D               	retlw	61	;'='
  1302  0858  3420               	retlw	32	;' '
  1303  0859  3400               	retlw	0
  1304                           
  1305                           	psect	stringtext6
  1306  085A                     __pstringtext6:
  1307  085A                     STR_5:
  1308  085A  3420               	retlw	32	;' '
  1309  085B  3464               	retlw	100	;'d'
  1310  085C  3465               	retlw	101	;'e'
  1311  085D  3467               	retlw	103	;'g'
  1312  085E  3400               	retlw	0
  1313                           
  1314                           	psect	stringtext7
  1315  085F                     __pstringtext7:
  1316  085F                     STR_3:
  1317  085F  3420               	retlw	32	;' '
  1318  0860  3463               	retlw	99	;'c'
  1319  0861  346D               	retlw	109	;'m'
  1320  0862  3400               	retlw	0
  1321                           
  1322                           	psect	stringtext8
  1323  0000                     __pstringtext8:
  1324  0841                     
  1325                           	psect	cinit
  1326  07F5                     start_initialization:	
  1327                           ; #config settings
  1328                           
  1329  07F5                     __initialization:
  1330                           
  1331                           ; Clear objects allocated to BANK0
  1332  07F5  3037               	movlw	low __pbssBANK0
  1333  07F6  0084               	movwf	4
  1334  07F7  3000               	movlw	high __pbssBANK0
  1335  07F8  0085               	movwf	5
  1336  07F9  300E               	movlw	14
  1337  07FA  3184  2470  3187   	fcall	clear_ram0
  1338  07FD                     end_of_initialization:	
  1339                           ;End of C runtime variable initialization code
  1340                           
  1341  07FD                     __end_of__initialization:
  1342  07FD  0140               	movlb	0
  1343  07FE  3186  2EF8         	ljmp	_main	;jump to C main() function
  1344                           
  1345                           	psect	bssBANK0
  1346  0037                     __pbssBANK0:
  1347  0037                     _distance:
  1348  0037                     	ds	2
  1349  0039                     itoa@buffer:
  1350  0039                     	ds	12
  1351                           
  1352                           	psect	clrtext
  1353  0470                     clear_ram0:	
  1354                           ;	Called with FSR0 containing the base address, and
  1355                           ;	WREG with the size to clear
  1356                           
  1357  0470  0064               	clrwdt	;clear the watchdog before getting into this loop
  1358  0471                     clrloop0:
  1359  0471  0180               	clrf	0	;clear RAM location pointed to by FSR
  1360  0472  3101               	addfsr 0,1
  1361  0473  0B89               	decfsz	9,f	;Have we reached the end of clearing yet?
  1362  0474  2C71               	goto	clrloop0	;have we reached the end yet?
  1363  0475  3400               	retlw	0	;all done for this memory range, return
  1364                           
  1365                           	psect	cstackCOMMON
  1366  0070                     __pcstackCOMMON:
  1367  0070                     ?_cfg_eusart:
  1368  0070                     ??_cfg_eusart:	
  1369                           ; 1 bytes @ 0x0
  1370                           
  1371  0070                     ?_cfg_pwm:	
  1372                           ; 1 bytes @ 0x0
  1373                           
  1374  0070                     ??_cfg_pwm:	
  1375                           ; 1 bytes @ 0x0
  1376                           
  1377  0070                     ?_send_char:	
  1378                           ; 1 bytes @ 0x0
  1379                           
  1380  0070                     ??_send_char:	
  1381                           ; 1 bytes @ 0x0
  1382                           
  1383  0070                     ?_ranging_sys_init:	
  1384                           ; 1 bytes @ 0x0
  1385                           
  1386  0070                     ??_ranging_sys_init:	
  1387                           ; 1 bytes @ 0x0
  1388                           
  1389  0070                     ?_set_pwm_dc:	
  1390                           ; 1 bytes @ 0x0
  1391                           
  1392  0070                     ??_set_pwm_dc:	
  1393                           ; 1 bytes @ 0x0
  1394                           
  1395  0070                     ?_dpsw_to_dc:	
  1396                           ; 1 bytes @ 0x0
  1397                           
  1398  0070                     ?_main:	
  1399                           ; 1 bytes @ 0x0
  1400                           
  1401  0070                     ?___bmul:	
  1402                           ; 1 bytes @ 0x0
  1403                           
  1404  0070                     ?_calcAngle:	
  1405                           ; 1 bytes @ 0x0
  1406                           
  1407  0070                     ?___wmul:	
  1408                           ; 2 bytes @ 0x0
  1409                           
  1410  0070                     ?___awmod:	
  1411                           ; 2 bytes @ 0x0
  1412                           
  1413  0070                     send_char@word:	
  1414                           ; 2 bytes @ 0x0
  1415                           
  1416  0070                     set_pwm_dc@dc:	
  1417                           ; 1 bytes @ 0x0
  1418                           
  1419  0070                     ___bmul@multiplicand:	
  1420                           ; 1 bytes @ 0x0
  1421                           
  1422  0070                     ___wmul@multiplier:	
  1423                           ; 1 bytes @ 0x0
  1424                           
  1425  0070                     ___awmod@divisor:	
  1426                           ; 2 bytes @ 0x0
  1427                           
  1428                           
  1429                           ; 2 bytes @ 0x0
  1430  0070                     	ds	1
  1431  0071                     ??___bmul:
  1432                           
  1433                           ; 1 bytes @ 0x1
  1434  0071                     	ds	1
  1435  0072                     ??_calcAngle:
  1436  0072                     ___bmul@product:	
  1437                           ; 1 bytes @ 0x2
  1438                           
  1439  0072                     calcAngle@angle:	
  1440                           ; 1 bytes @ 0x2
  1441                           
  1442  0072                     ___wmul@multiplicand:	
  1443                           ; 2 bytes @ 0x2
  1444                           
  1445  0072                     ___awmod@dividend:	
  1446                           ; 2 bytes @ 0x2
  1447                           
  1448                           
  1449                           ; 2 bytes @ 0x2
  1450  0072                     	ds	1
  1451  0073                     ___bmul@multiplier:
  1452                           
  1453                           ; 1 bytes @ 0x3
  1454  0073                     	ds	1
  1455  0074                     ??___wmul:
  1456  0074                     ??___awmod:	
  1457                           ; 1 bytes @ 0x4
  1458                           
  1459  0074                     ___wmul@product:	
  1460                           ; 1 bytes @ 0x4
  1461                           
  1462                           
  1463                           ; 2 bytes @ 0x4
  1464  0074                     	ds	1
  1465  0075                     ___awmod@counter:
  1466                           
  1467                           ; 1 bytes @ 0x5
  1468  0075                     	ds	1
  1469  0076                     ?___awdiv:
  1470  0076                     ___awmod@sign:	
  1471                           ; 2 bytes @ 0x6
  1472                           
  1473  0076                     ___awdiv@divisor:	
  1474                           ; 1 bytes @ 0x6
  1475                           
  1476                           
  1477                           ; 2 bytes @ 0x6
  1478  0076                     	ds	2
  1479  0078                     ___awdiv@dividend:
  1480                           
  1481                           ; 2 bytes @ 0x8
  1482  0078                     	ds	2
  1483  007A                     ??___awdiv:
  1484                           
  1485                           ; 1 bytes @ 0xA
  1486  007A                     	ds	1
  1487  007B                     ??_itoa:
  1488                           
  1489                           ; 1 bytes @ 0xB
  1490  007B                     	ds	1
  1491  007C                     ??_send_string:
  1492                           
  1493                           ; 1 bytes @ 0xC
  1494  007C                     	ds	1
  1495  007D                     main@dc:
  1496                           
  1497                           ; 1 bytes @ 0xD
  1498  007D                     	ds	1
  1499                           
  1500                           	psect	cstackBANK0
  1501  0020                     __pcstackBANK0:
  1502  0020                     ___awdiv@counter:
  1503                           
  1504                           ; 1 bytes @ 0x0
  1505  0020                     	ds	1
  1506  0021                     ___awdiv@sign:
  1507                           
  1508                           ; 1 bytes @ 0x1
  1509  0021                     	ds	1
  1510  0022                     ___awdiv@quotient:
  1511                           
  1512                           ; 2 bytes @ 0x2
  1513  0022                     	ds	2
  1514  0024                     ?_itoa:
  1515  0024                     ??_dpsw_to_dc:	
  1516                           ; 1 bytes @ 0x4
  1517                           
  1518  0024                     itoa@value:	
  1519                           ; 1 bytes @ 0x4
  1520                           
  1521                           
  1522                           ; 2 bytes @ 0x4
  1523  0024                     	ds	2
  1524  0026                     itoa@original:
  1525                           
  1526                           ; 2 bytes @ 0x6
  1527  0026                     	ds	2
  1528  0028                     itoa@c:
  1529  0028                     dpsw_to_dc@d0:	
  1530                           ; 2 bytes @ 0x8
  1531                           
  1532                           
  1533                           ; 2 bytes @ 0x8
  1534  0028                     	ds	2
  1535  002A                     ?_send_string:
  1536  002A                     send_string@st_pt:	
  1537                           ; 1 bytes @ 0xA
  1538                           
  1539  002A                     dpsw_to_dc@d1:	
  1540                           ; 2 bytes @ 0xA
  1541                           
  1542                           
  1543                           ; 2 bytes @ 0xA
  1544  002A                     	ds	2
  1545  002C                     dpsw_to_dc@d2:
  1546                           
  1547                           ; 2 bytes @ 0xC
  1548  002C                     	ds	2
  1549  002E                     dpsw_to_dc@d3:
  1550                           
  1551                           ; 2 bytes @ 0xE
  1552  002E                     	ds	2
  1553  0030                     dpsw_to_dc@rem:
  1554                           
  1555                           ; 1 bytes @ 0x10
  1556  0030                     	ds	1
  1557  0031                     dpsw_to_dc@num_base:
  1558                           
  1559                           ; 1 bytes @ 0x11
  1560  0031                     	ds	1
  1561  0032                     dpsw_to_dc@decimal_num:
  1562                           
  1563                           ; 1 bytes @ 0x12
  1564  0032                     	ds	1
  1565  0033                     dpsw_to_dc@binary_d:
  1566                           
  1567                           ; 2 bytes @ 0x13
  1568  0033                     	ds	2
  1569  0035                     ??_main:
  1570                           
  1571                           ; 1 bytes @ 0x15
  1572  0035                     	ds	2
  1573                           
  1574                           	psect	maintext
  1575  06F8                     __pmaintext:	
  1576 ;;
  1577 ;;Main: autosize = 0, tempsize = 2, incstack = 0, save=0
  1578 ;;
  1579 ;; *************** function _main *****************
  1580 ;; Defined at:
  1581 ;;		line 282 in file "C:/Users/rocke/Desktop/PIC16-PTS/main.c"
  1582 ;; Parameters:    Size  Location     Type
  1583 ;;		None
  1584 ;; Auto vars:     Size  Location     Type
  1585 ;;  dc              1   13[COMMON] unsigned char 
  1586 ;; Return value:  Size  Location     Type
  1587 ;;                  1    wreg      void 
  1588 ;; Registers used:
  1589 ;;		wreg, fsr0l, fsr0h, fsr1l, fsr1h, status,2, status,0, pclath, cstack
  1590 ;; Tracked objects:
  1591 ;;		On entry : B3F/0
  1592 ;;		On exit  : 0/0
  1593 ;;		Unchanged: 0/0
  1594 ;; Data sizes:     COMMON   BANK0   BANK1   BANK2   BANK3   BANK4   BANK5   BANK6   BANK7   BANK8   BANK9  BANK10  BANK1
      +1  BANK12  BANK13  BANK14  BANK15  BANK16  BANK17  BANK18  BANK19  BANK20  BANK21  BANK22  BANK23  BANK24  BANK25  BANK2
      +6  BANK27  BANK28  BANK29  BANK30  BANK31  BANK32  BANK33  BANK34  BANK35  BANK36  BANK37  BANK38  BANK39  BANK40  BANK4
      +1  BANK42  BANK43  BANK44  BANK45  BANK46  BANK47  BANK48  BANK49  BANK50
  1595 ;;      Params:         0       0       0       0       0       0       0       0       0       0       0       0       
      +0       0       0       0       0       0       0       0       0       0       0       0       0       0       0       
      +0       0       0       0       0       0       0       0       0       0       0       0       0       0       0       
      +0       0       0       0       0       0       0       0       0       0
  1596 ;;      Locals:         1       0       0       0       0       0       0       0       0       0       0       0       
      +0       0       0       0       0       0       0       0       0       0       0       0       0       0       0       
      +0       0       0       0       0       0       0       0       0       0       0       0       0       0       0       
      +0       0       0       0       0       0       0       0       0       0
  1597 ;;      Temps:          0       2       0       0       0       0       0       0       0       0       0       0       
      +0       0       0       0       0       0       0       0       0       0       0       0       0       0       0       
      +0       0       0       0       0       0       0       0       0       0       0       0       0       0       0       
      +0       0       0       0       0       0       0       0       0       0
  1598 ;;      Totals:         1       2       0       0       0       0       0       0       0       0       0       0       
      +0       0       0       0       0       0       0       0       0       0       0       0       0       0       0       
      +0       0       0       0       0       0       0       0       0       0       0       0       0       0       0       
      +0       0       0       0       0       0       0       0       0       0
  1599 ;;Total ram usage:        3 bytes
  1600 ;; Hardware stack levels required when called: 2
  1601 ;; This function calls:
  1602 ;;		___awdiv
  1603 ;;		___wmul
  1604 ;;		_calcAngle
  1605 ;;		_cfg_eusart
  1606 ;;		_cfg_pwm
  1607 ;;		_dpsw_to_dc
  1608 ;;		_itoa
  1609 ;;		_ranging_sys_init
  1610 ;;		_send_string
  1611 ;;		_set_pwm_dc
  1612 ;; This function is called by:
  1613 ;;		Startup code after reset
  1614 ;; This function uses a non-reentrant model
  1615 ;;
  1616                           
  1617                           
  1618                           ;psect for function _main
  1619  06F8                     _main:
  1620  06F8                     l1337:	
  1621                           ;incstack = 0
  1622                           ; Regs used in _main: [wreg-fsr1h+status,2+status,0+pclath+cstack]
  1623                           
  1624                           
  1625                           ;C:/Users/rocke/Desktop/PIC16-PTS/main.c: 286:     cfg_eusart();
  1626  06F8  3184  2480  3186   	fcall	_cfg_eusart
  1627                           
  1628                           ;C:/Users/rocke/Desktop/PIC16-PTS/main.c: 287:     cfg_pwm();
  1629  06FB  3185  250D  3186   	fcall	_cfg_pwm
  1630                           
  1631                           ;C:/Users/rocke/Desktop/PIC16-PTS/main.c: 288:     ranging_sys_init();
  1632  06FE  3184  24BD  3186   	fcall	_ranging_sys_init
  1633  0701                     l1339:
  1634                           
  1635                           ;C:/Users/rocke/Desktop/PIC16-PTS/main.c: 292:     _delay((unsigned long)((1000)*(200000
      +                          0/4000.0)));
  1636  0701  3003               	movlw	3
  1637  0702  0140               	movlb	0	; select bank0
  1638  0703  00B6               	movwf	??_main+1
  1639  0704  308A               	movlw	138
  1640  0705  00B5               	movwf	??_main
  1641  0706  3055               	movlw	85
  1642  0707                     u977:
  1643  0707  0B89               	decfsz	9,f
  1644  0708  2F07               	goto	u977
  1645  0709  0BB5               	decfsz	??_main,f
  1646  070A  2F07               	goto	u977
  1647  070B  0BB6               	decfsz	??_main+1,f
  1648  070C  2F07               	goto	u977
  1649  070D  3200               	nop2
  1650  070E                     l1341:
  1651                           
  1652                           ;C:/Users/rocke/Desktop/PIC16-PTS/main.c: 293:     send_string("[*]Serial Connection suc
      +                          cessful\r\n");
  1653  070E  3000               	movlw	low (STR_1| (0+32768))
  1654  070F  0140               	movlb	0	; select bank0
  1655  0710  00AA               	movwf	send_string@st_pt
  1656  0711  3088               	movlw	high (STR_1| (0+32768))
  1657  0712  00AB               	movwf	send_string@st_pt+1
  1658  0713  3184  24D5  3186   	fcall	_send_string
  1659  0716                     l1343:
  1660  0716                     l1345:
  1661                           
  1662                           ;C:/Users/rocke/Desktop/PIC16-PTS/main.c: 299:     {;C:/Users/rocke/Desktop/PIC16-PTS/ma
      +                          in.c: 300:         set_pwm_dc(dpsw_to_dc());
  1663  0716  3186  2668  3186   	fcall	_dpsw_to_dc
  1664  0719  3184  24A6  3186   	fcall	_set_pwm_dc
  1665  071C                     l1347:
  1666                           
  1667                           ;C:/Users/rocke/Desktop/PIC16-PTS/main.c: 301:         TMR0H = 0;
  1668  071C  0140               	movlb	0	; select bank0
  1669  071D  019D               	clrf	29	;volatile
  1670  071E                     l1349:
  1671                           
  1672                           ;C:/Users/rocke/Desktop/PIC16-PTS/main.c: 302:         TMR0L = 0;
  1673  071E  019C               	clrf	28	;volatile
  1674  071F                     l1351:
  1675                           
  1676                           ;C:/Users/rocke/Desktop/PIC16-PTS/main.c: 303:         T0CON1bits.T0CKPS = 0b0001;
  1677  071F  081F               	movf	31,w	;volatile
  1678  0720  39F0               	andlw	-16
  1679  0721  3801               	iorlw	1
  1680  0722  009F               	movwf	31	;volatile
  1681  0723                     l1353:
  1682                           
  1683                           ;C:/Users/rocke/Desktop/PIC16-PTS/main.c: 305:         PORTBbits.RB3 = 1;
  1684  0723  158D               	bsf	13,3	;volatile
  1685  0724                     l1355:
  1686                           
  1687                           ;C:/Users/rocke/Desktop/PIC16-PTS/main.c: 306:         _delay((unsigned long)((10)*(2000
      +                          000/4000000.0)));
  1688  0724  3200               	nop2	;2 cycle nop
  1689  0725  3200               	nop2	;2 cycle nop
  1690  0726  0000               	nop
  1691  0727                     l1357:
  1692                           
  1693                           ;C:/Users/rocke/Desktop/PIC16-PTS/main.c: 307:         PORTBbits.RB3 = 0;
  1694  0727  0140               	movlb	0	; select bank0
  1695  0728  118D               	bcf	13,3	;volatile
  1696  0729                     l141:	
  1697                           ;C:/Users/rocke/Desktop/PIC16-PTS/main.c: 309:         while(!PORTBbits.RB4);
  1698                           
  1699  0729  1E0D               	btfss	13,4	;volatile
  1700  072A  2F2C               	goto	u931
  1701  072B  2F2D               	goto	u930
  1702  072C                     u931:
  1703  072C  2F29               	goto	l141
  1704  072D                     u930:
  1705  072D                     l143:
  1706                           
  1707                           ;C:/Users/rocke/Desktop/PIC16-PTS/main.c: 310:         T0CON0bits.T0EN = 1;
  1708  072D  179E               	bsf	30,7	;volatile
  1709  072E                     l144:	
  1710                           ;C:/Users/rocke/Desktop/PIC16-PTS/main.c: 311:         while(PORTBbits.RB4);
  1711                           
  1712  072E  1A0D               	btfsc	13,4	;volatile
  1713  072F  2F31               	goto	u941
  1714  0730  2F32               	goto	u940
  1715  0731                     u941:
  1716  0731  2F2E               	goto	l144
  1717  0732                     u940:
  1718  0732                     l146:
  1719                           
  1720                           ;C:/Users/rocke/Desktop/PIC16-PTS/main.c: 312:         T0CON0bits.T0EN = 0;
  1721  0732  139E               	bcf	30,7	;volatile
  1722  0733                     l1359:
  1723                           
  1724                           ;C:/Users/rocke/Desktop/PIC16-PTS/main.c: 314:         distance = (TMR0L | (TMR0H<<8));
  1725  0733  081D               	movf	29,w	;volatile
  1726  0734  00B8               	movwf	_distance+1
  1727  0735  081C               	movf	28,w	;volatile
  1728  0736  00B7               	movwf	_distance
  1729  0737                     l1361:
  1730                           
  1731                           ;C:/Users/rocke/Desktop/PIC16-PTS/main.c: 316:         distance = distance*17/250;
  1732  0737  30FA               	movlw	250
  1733  0738  00F6               	movwf	___awdiv@divisor
  1734  0739  3000               	movlw	0
  1735  073A  00F7               	movwf	___awdiv@divisor+1
  1736  073B  0838               	movf	_distance+1,w
  1737  073C  00F1               	movwf	___wmul@multiplier+1
  1738  073D  0837               	movf	_distance,w
  1739  073E  00F0               	movwf	___wmul@multiplier
  1740  073F  3011               	movlw	17
  1741  0740  00F2               	movwf	___wmul@multiplicand
  1742  0741  3000               	movlw	0
  1743  0742  00F3               	movwf	___wmul@multiplicand+1
  1744  0743  3184  24EE  3186   	fcall	___wmul
  1745  0746  0871               	movf	?___wmul+1,w
  1746  0747  00F9               	movwf	___awdiv@dividend+1
  1747  0748  0870               	movf	?___wmul,w
  1748  0749  00F8               	movwf	___awdiv@dividend
  1749  074A  3186  2608  3186   	fcall	___awdiv
  1750  074D  0877               	movf	?___awdiv+1,w
  1751  074E  0140               	movlb	0	; select bank0
  1752  074F  00B8               	movwf	_distance+1
  1753  0750  0876               	movf	?___awdiv,w
  1754  0751  00B7               	movwf	_distance
  1755  0752                     l1363:
  1756                           
  1757                           ;C:/Users/rocke/Desktop/PIC16-PTS/main.c: 317:         distance = distance + 1;
  1758  0752  0837               	movf	_distance,w
  1759  0753  3E01               	addlw	1
  1760  0754  00B7               	movwf	_distance
  1761  0755  3000               	movlw	0
  1762  0756  3D38               	addwfc	_distance+1,w
  1763  0757  00B8               	movwf	_distance+1
  1764  0758                     l1365:
  1765                           
  1766                           ;C:/Users/rocke/Desktop/PIC16-PTS/main.c: 319:         dc = CCPR2H;
  1767  0758  0146               	movlb	6	; select bank6
  1768  0759  0811               	movf	17,w	;volatile
  1769  075A  0140               	movlb	0	; select bank0
  1770  075B  00B5               	movwf	??_main
  1771  075C  0835               	movf	??_main,w
  1772  075D  00FD               	movwf	main@dc
  1773  075E                     l1367:
  1774                           
  1775                           ;C:/Users/rocke/Desktop/PIC16-PTS/main.c: 321:         if(distance>=2 && distance<=400)
  1776  075E  0838               	movf	_distance+1,w
  1777  075F  3A80               	xorlw	128
  1778  0760  00B5               	movwf	??_main
  1779  0761  3080               	movlw	128
  1780  0762  0235               	subwf	??_main,w
  1781  0763  1D03               	skipz
  1782  0764  2F67               	goto	u955
  1783  0765  3002               	movlw	2
  1784  0766  0237               	subwf	_distance,w
  1785  0767                     u955:
  1786  0767  1C03               	skipc
  1787  0768  2F6A               	goto	u951
  1788  0769  2F6B               	goto	u950
  1789  076A                     u951:
  1790  076A  2FDD               	goto	l1385
  1791  076B                     u950:
  1792  076B                     l1369:
  1793  076B  0140               	movlb	0	; select bank0
  1794  076C  0838               	movf	_distance+1,w
  1795  076D  3A80               	xorlw	128
  1796  076E  00B5               	movwf	??_main
  1797  076F  3081               	movlw	129
  1798  0770  0235               	subwf	??_main,w
  1799  0771  1D03               	skipz
  1800  0772  2F75               	goto	u965
  1801  0773  3091               	movlw	145
  1802  0774  0237               	subwf	_distance,w
  1803  0775                     u965:
  1804  0775  1803               	skipnc
  1805  0776  2F78               	goto	u961
  1806  0777  2F79               	goto	u960
  1807  0778                     u961:
  1808  0778  2FDD               	goto	l1385
  1809  0779                     u960:
  1810  0779                     l1371:
  1811                           
  1812                           ;C:/Users/rocke/Desktop/PIC16-PTS/main.c: 322:         {;C:/Users/rocke/Desktop/PIC16-PT
      +                          S/main.c: 324:             send_string("Distance = ");
  1813  0779  3044               	movlw	low (STR_2| (0+32768))
  1814  077A  0140               	movlb	0	; select bank0
  1815  077B  00AA               	movwf	send_string@st_pt
  1816  077C  3088               	movlw	high (STR_2| (0+32768))
  1817  077D  00AB               	movwf	send_string@st_pt+1
  1818  077E  3184  24D5  3186   	fcall	_send_string
  1819  0781                     l1373:
  1820                           
  1821                           ;C:/Users/rocke/Desktop/PIC16-PTS/main.c: 325:             send_string(itoa(distance));
  1822  0781  0140               	movlb	0	; select bank0
  1823  0782  0838               	movf	_distance+1,w
  1824  0783  00A5               	movwf	itoa@value+1
  1825  0784  0837               	movf	_distance,w
  1826  0785  00A4               	movwf	itoa@value
  1827  0786  3185  25B3  3186   	fcall	_itoa
  1828  0789  0140               	movlb	0	; select bank0
  1829  078A  00AA               	movwf	send_string@st_pt
  1830  078B  3000               	movlw	0
  1831  078C  00AB               	movwf	send_string@st_pt+1
  1832  078D  3184  24D5  3186   	fcall	_send_string
  1833  0790                     l1375:
  1834                           
  1835                           ;C:/Users/rocke/Desktop/PIC16-PTS/main.c: 326:             send_string(" cm");
  1836  0790  305F               	movlw	low (STR_3| (0+32768))
  1837  0791  0140               	movlb	0	; select bank0
  1838  0792  00AA               	movwf	send_string@st_pt
  1839  0793  3088               	movlw	high (STR_3| (0+32768))
  1840  0794  00AB               	movwf	send_string@st_pt+1
  1841  0795  3184  24D5  3186   	fcall	_send_string
  1842  0798                     l1377:
  1843                           
  1844                           ;C:/Users/rocke/Desktop/PIC16-PTS/main.c: 328:             send_string("\tAngle = ");
  1845  0798  3050               	movlw	low (STR_4| (0+32768))
  1846  0799  0140               	movlb	0	; select bank0
  1847  079A  00AA               	movwf	send_string@st_pt
  1848  079B  3088               	movlw	high (STR_4| (0+32768))
  1849  079C  00AB               	movwf	send_string@st_pt+1
  1850  079D  3184  24D5  3186   	fcall	_send_string
  1851  07A0                     l1379:
  1852                           
  1853                           ;C:/Users/rocke/Desktop/PIC16-PTS/main.c: 329:             send_string(itoa(calcAngle())
      +                          );
  1854  07A0  3185  2531  3186   	fcall	_calcAngle
  1855  07A3  0871               	movf	?_calcAngle+1,w
  1856  07A4  0140               	movlb	0	; select bank0
  1857  07A5  00A5               	movwf	itoa@value+1
  1858  07A6  0870               	movf	?_calcAngle,w
  1859  07A7  00A4               	movwf	itoa@value
  1860  07A8  3185  25B3  3186   	fcall	_itoa
  1861  07AB  0140               	movlb	0	; select bank0
  1862  07AC  00AA               	movwf	send_string@st_pt
  1863  07AD  3000               	movlw	0
  1864  07AE  00AB               	movwf	send_string@st_pt+1
  1865  07AF  3184  24D5  3186   	fcall	_send_string
  1866                           
  1867                           ;C:/Users/rocke/Desktop/PIC16-PTS/main.c: 330:             send_string(" deg");
  1868  07B2  305A               	movlw	low (STR_5| (0+32768))
  1869  07B3  0140               	movlb	0	; select bank0
  1870  07B4  00AA               	movwf	send_string@st_pt
  1871  07B5  3088               	movlw	high (STR_5| (0+32768))
  1872  07B6  00AB               	movwf	send_string@st_pt+1
  1873  07B7  3184  24D5  3186   	fcall	_send_string
  1874                           
  1875                           ;C:/Users/rocke/Desktop/PIC16-PTS/main.c: 333:             send_string("\tPWM Duty Cycle
      +                           = ");
  1876  07BA  3022               	movlw	low (STR_6| (0+32768))
  1877  07BB  0140               	movlb	0	; select bank0
  1878  07BC  00AA               	movwf	send_string@st_pt
  1879  07BD  3088               	movlw	high (STR_6| (0+32768))
  1880  07BE  00AB               	movwf	send_string@st_pt+1
  1881  07BF  3184  24D5  3186   	fcall	_send_string
  1882  07C2                     l1381:
  1883                           
  1884                           ;C:/Users/rocke/Desktop/PIC16-PTS/main.c: 334:             send_string(itoa(dc));
  1885  07C2  087D               	movf	main@dc,w
  1886  07C3  0140               	movlb	0	; select bank0
  1887  07C4  00B5               	movwf	??_main
  1888  07C5  01B6               	clrf	??_main+1
  1889  07C6  0835               	movf	??_main,w
  1890  07C7  00A4               	movwf	itoa@value
  1891  07C8  0836               	movf	??_main+1,w
  1892  07C9  00A5               	movwf	itoa@value+1
  1893  07CA  3185  25B3  3186   	fcall	_itoa
  1894  07CD  0140               	movlb	0	; select bank0
  1895  07CE  00AA               	movwf	send_string@st_pt
  1896  07CF  3000               	movlw	0
  1897  07D0  00AB               	movwf	send_string@st_pt+1
  1898  07D1  3184  24D5  3186   	fcall	_send_string
  1899  07D4                     l1383:
  1900                           
  1901                           ;C:/Users/rocke/Desktop/PIC16-PTS/main.c: 335:             send_string("\r\n");
  1902  07D4  3041               	movlw	low ((STR_8+12)| (0+32768))
  1903  07D5  0140               	movlb	0	; select bank0
  1904  07D6  00AA               	movwf	send_string@st_pt
  1905  07D7  3088               	movlw	high ((STR_8+12)| (0+32768))
  1906  07D8  00AB               	movwf	send_string@st_pt+1
  1907  07D9  3184  24D5  3186   	fcall	_send_string
  1908                           
  1909                           ;C:/Users/rocke/Desktop/PIC16-PTS/main.c: 336:         }
  1910  07DC  2FE5               	goto	l1387
  1911  07DD                     l1385:
  1912                           
  1913                           ;C:/Users/rocke/Desktop/PIC16-PTS/main.c: 338:         {;C:/Users/rocke/Desktop/PIC16-PT
      +                          S/main.c: 339:           send_string("Out of Range\r\n");
  1914  07DD  3035               	movlw	low (STR_8| (0+32768))
  1915  07DE  0140               	movlb	0	; select bank0
  1916  07DF  00AA               	movwf	send_string@st_pt
  1917  07E0  3088               	movlw	high (STR_8| (0+32768))
  1918  07E1  00AB               	movwf	send_string@st_pt+1
  1919  07E2  3184  24D5  3186   	fcall	_send_string
  1920  07E5                     l1387:
  1921                           
  1922                           ;C:/Users/rocke/Desktop/PIC16-PTS/main.c: 341:         _delay((unsigned long)((400)*(200
      +                          0000/4000.0)));
  1923  07E5  3002               	movlw	2
  1924  07E6  0140               	movlb	0	; select bank0
  1925  07E7  00B6               	movwf	??_main+1
  1926  07E8  3004               	movlw	4
  1927  07E9  00B5               	movwf	??_main
  1928  07EA  30BA               	movlw	186
  1929  07EB                     u987:
  1930  07EB  0B89               	decfsz	9,f
  1931  07EC  2FEB               	goto	u987
  1932  07ED  0BB5               	decfsz	??_main,f
  1933  07EE  2FEB               	goto	u987
  1934  07EF  0BB6               	decfsz	??_main+1,f
  1935  07F0  2FEB               	goto	u987
  1936  07F1  0000               	nop
  1937  07F2  2F16               	goto	l1345
  1938  07F3  3180  2802         	ljmp	start
  1939  07F5                     __end_of_main:
  1940                           
  1941                           	psect	text1
  1942  04A6                     __ptext1:	
  1943 ;; *************** function _set_pwm_dc *****************
  1944 ;; Defined at:
  1945 ;;		line 228 in file "C:/Users/rocke/Desktop/PIC16-PTS/main.c"
  1946 ;; Parameters:    Size  Location     Type
  1947 ;;  dc              1    wreg     unsigned char 
  1948 ;; Auto vars:     Size  Location     Type
  1949 ;;  dc              1    0[COMMON] unsigned char 
  1950 ;; Return value:  Size  Location     Type
  1951 ;;                  1    wreg      void 
  1952 ;; Registers used:
  1953 ;;		wreg, status,2, status,0
  1954 ;; Tracked objects:
  1955 ;;		On entry : 0/0
  1956 ;;		On exit  : 0/0
  1957 ;;		Unchanged: 0/0
  1958 ;; Data sizes:     COMMON   BANK0   BANK1   BANK2   BANK3   BANK4   BANK5   BANK6   BANK7   BANK8   BANK9  BANK10  BANK1
      +1  BANK12  BANK13  BANK14  BANK15  BANK16  BANK17  BANK18  BANK19  BANK20  BANK21  BANK22  BANK23  BANK24  BANK25  BANK2
      +6  BANK27  BANK28  BANK29  BANK30  BANK31  BANK32  BANK33  BANK34  BANK35  BANK36  BANK37  BANK38  BANK39  BANK40  BANK4
      +1  BANK42  BANK43  BANK44  BANK45  BANK46  BANK47  BANK48  BANK49  BANK50
  1959 ;;      Params:         0       0       0       0       0       0       0       0       0       0       0       0       
      +0       0       0       0       0       0       0       0       0       0       0       0       0       0       0       
      +0       0       0       0       0       0       0       0       0       0       0       0       0       0       0       
      +0       0       0       0       0       0       0       0       0       0
  1960 ;;      Locals:         1       0       0       0       0       0       0       0       0       0       0       0       
      +0       0       0       0       0       0       0       0       0       0       0       0       0       0       0       
      +0       0       0       0       0       0       0       0       0       0       0       0       0       0       0       
      +0       0       0       0       0       0       0       0       0       0
  1961 ;;      Temps:          0       0       0       0       0       0       0       0       0       0       0       0       
      +0       0       0       0       0       0       0       0       0       0       0       0       0       0       0       
      +0       0       0       0       0       0       0       0       0       0       0       0       0       0       0       
      +0       0       0       0       0       0       0       0       0       0
  1962 ;;      Totals:         1       0       0       0       0       0       0       0       0       0       0       0       
      +0       0       0       0       0       0       0       0       0       0       0       0       0       0       0       
      +0       0       0       0       0       0       0       0       0       0       0       0       0       0       0       
      +0       0       0       0       0       0       0       0       0       0
  1963 ;;Total ram usage:        1 bytes
  1964 ;; Hardware stack levels used: 1
  1965 ;; This function calls:
  1966 ;;		Nothing
  1967 ;; This function is called by:
  1968 ;;		_main
  1969 ;; This function uses a non-reentrant model
  1970 ;;
  1971                           
  1972                           
  1973                           ;psect for function _set_pwm_dc
  1974  04A6                     _set_pwm_dc:
  1975                           
  1976                           ;incstack = 0
  1977                           ; Regs used in _set_pwm_dc: [wreg+status,2+status,0]
  1978                           ;set_pwm_dc@dc stored from wreg
  1979  04A6  00F0               	movwf	set_pwm_dc@dc
  1980  04A7                     l1267:
  1981                           
  1982                           ;C:/Users/rocke/Desktop/PIC16-PTS/main.c: 228: void set_pwm_dc(uint8_t dc);C:/Users/rock
      +                          e/Desktop/PIC16-PTS/main.c: 229: {;C:/Users/rocke/Desktop/PIC16-PTS/main.c: 230:        
      +                           if(dc>20)
  1983  04A7  3015               	movlw	21
  1984  04A8  0270               	subwf	set_pwm_dc@dc,w
  1985  04A9  1C03               	skipc
  1986  04AA  2CAC               	goto	u811
  1987  04AB  2CAD               	goto	u810
  1988  04AC                     u811:
  1989  04AC  2CB1               	goto	l1271
  1990  04AD                     u810:
  1991  04AD                     l1269:
  1992                           
  1993                           ;C:/Users/rocke/Desktop/PIC16-PTS/main.c: 231:         {;C:/Users/rocke/Desktop/PIC16-PT
      +                          S/main.c: 232:             CCPR2H = 20;
  1994  04AD  3014               	movlw	20
  1995  04AE  0146               	movlb	6	; select bank6
  1996  04AF  0091               	movwf	17	;volatile
  1997                           
  1998                           ;C:/Users/rocke/Desktop/PIC16-PTS/main.c: 234:         }
  1999  04B0  2CBC               	goto	l120
  2000  04B1                     l1271:
  2001  04B1  0870               	movf	set_pwm_dc@dc,w
  2002  04B2  1D03               	btfss	3,2
  2003  04B3  2CB5               	goto	u821
  2004  04B4  2CB6               	goto	u820
  2005  04B5                     u821:
  2006  04B5  2CB9               	goto	l1275
  2007  04B6                     u820:
  2008  04B6                     l1273:
  2009                           
  2010                           ;C:/Users/rocke/Desktop/PIC16-PTS/main.c: 236:         {;C:/Users/rocke/Desktop/PIC16-PT
      +                          S/main.c: 237:             CCPR2H = 0;
  2011  04B6  0146               	movlb	6	; select bank6
  2012  04B7  0191               	clrf	17	;volatile
  2013                           
  2014                           ;C:/Users/rocke/Desktop/PIC16-PTS/main.c: 239:         }
  2015  04B8  2CBC               	goto	l120
  2016  04B9                     l1275:
  2017                           
  2018                           ;C:/Users/rocke/Desktop/PIC16-PTS/main.c: 241:             CCPR2H = dc;
  2019  04B9  0870               	movf	set_pwm_dc@dc,w
  2020  04BA  0146               	movlb	6	; select bank6
  2021  04BB  0091               	movwf	17	;volatile
  2022  04BC                     l120:
  2023  04BC  0008               	return
  2024  04BD                     __end_of_set_pwm_dc:
  2025                           
  2026                           	psect	text2
  2027  04D5                     __ptext2:	
  2028 ;; *************** function _send_string *****************
  2029 ;; Defined at:
  2030 ;;		line 120 in file "C:/Users/rocke/Desktop/PIC16-PTS/main.c"
  2031 ;; Parameters:    Size  Location     Type
  2032 ;;  st_pt           2   10[BANK0 ] PTR unsigned char 
  2033 ;;		 -> STR_8(15), STR_7(3), STR_6(19), STR_5(5), 
  2034 ;;		 -> STR_4(10), STR_3(4), STR_2(12), STR_1(34), 
  2035 ;;		 -> itoa@buffer(12), 
  2036 ;; Auto vars:     Size  Location     Type
  2037 ;;		None
  2038 ;; Return value:  Size  Location     Type
  2039 ;;                  1    wreg      void 
  2040 ;; Registers used:
  2041 ;;		wreg, fsr0l, fsr0h, status,2, status,0, pclath, cstack
  2042 ;; Tracked objects:
  2043 ;;		On entry : 0/0
  2044 ;;		On exit  : 0/0
  2045 ;;		Unchanged: 0/0
  2046 ;; Data sizes:     COMMON   BANK0   BANK1   BANK2   BANK3   BANK4   BANK5   BANK6   BANK7   BANK8   BANK9  BANK10  BANK1
      +1  BANK12  BANK13  BANK14  BANK15  BANK16  BANK17  BANK18  BANK19  BANK20  BANK21  BANK22  BANK23  BANK24  BANK25  BANK2
      +6  BANK27  BANK28  BANK29  BANK30  BANK31  BANK32  BANK33  BANK34  BANK35  BANK36  BANK37  BANK38  BANK39  BANK40  BANK4
      +1  BANK42  BANK43  BANK44  BANK45  BANK46  BANK47  BANK48  BANK49  BANK50
  2047 ;;      Params:         0       2       0       0       0       0       0       0       0       0       0       0       
      +0       0       0       0       0       0       0       0       0       0       0       0       0       0       0       
      +0       0       0       0       0       0       0       0       0       0       0       0       0       0       0       
      +0       0       0       0       0       0       0       0       0       0
  2048 ;;      Locals:         0       0       0       0       0       0       0       0       0       0       0       0       
      +0       0       0       0       0       0       0       0       0       0       0       0       0       0       0       
      +0       0       0       0       0       0       0       0       0       0       0       0       0       0       0       
      +0       0       0       0       0       0       0       0       0       0
  2049 ;;      Temps:          1       0       0       0       0       0       0       0       0       0       0       0       
      +0       0       0       0       0       0       0       0       0       0       0       0       0       0       0       
      +0       0       0       0       0       0       0       0       0       0       0       0       0       0       0       
      +0       0       0       0       0       0       0       0       0       0
  2050 ;;      Totals:         1       2       0       0       0       0       0       0       0       0       0       0       
      +0       0       0       0       0       0       0       0       0       0       0       0       0       0       0       
      +0       0       0       0       0       0       0       0       0       0       0       0       0       0       0       
      +0       0       0       0       0       0       0       0       0       0
  2051 ;;Total ram usage:        3 bytes
  2052 ;; Hardware stack levels used: 1
  2053 ;; Hardware stack levels required when called: 1
  2054 ;; This function calls:
  2055 ;;		_send_char
  2056 ;; This function is called by:
  2057 ;;		_main
  2058 ;; This function uses a non-reentrant model
  2059 ;;
  2060                           
  2061                           
  2062                           ;psect for function _send_string
  2063  04D5                     _send_string:
  2064  04D5                     l1199:	
  2065                           ;incstack = 0
  2066                           ; Regs used in _send_string: [wreg-fsr0h+status,2+status,0+pclath+cstack]
  2067                           
  2068                           
  2069                           ;C:/Users/rocke/Desktop/PIC16-PTS/main.c: 120: void send_string(char* st_pt);C:/Users/ro
      +                          cke/Desktop/PIC16-PTS/main.c: 121: {;C:/Users/rocke/Desktop/PIC16-PTS/main.c: 122:     w
      +                          hile(*st_pt)
  2070  04D5  2CE3               	goto	l1205
  2071  04D6                     l1201:
  2072                           
  2073                           ;C:/Users/rocke/Desktop/PIC16-PTS/main.c: 123:         send_char(*st_pt++);
  2074  04D6  082A               	movf	send_string@st_pt,w
  2075  04D7  0084               	movwf	4
  2076  04D8  082B               	movf	send_string@st_pt+1,w
  2077  04D9  0085               	movwf	5
  2078  04DA  0800               	movf	0,w	;code access
  2079  04DB  3184  2476  3184   	fcall	_send_char
  2080  04DE                     l1203:
  2081  04DE  3001               	movlw	1
  2082  04DF  0140               	movlb	0	; select bank0
  2083  04E0  07AA               	addwf	send_string@st_pt,f
  2084  04E1  3000               	movlw	0
  2085  04E2  3DAB               	addwfc	send_string@st_pt+1,f
  2086  04E3                     l1205:
  2087                           
  2088                           ;C:/Users/rocke/Desktop/PIC16-PTS/main.c: 122:     while(*st_pt)
  2089  04E3  0140               	movlb	0	; select bank0
  2090  04E4  082A               	movf	send_string@st_pt,w
  2091  04E5  0084               	movwf	4
  2092  04E6  082B               	movf	send_string@st_pt+1,w
  2093  04E7  0085               	movwf	5
  2094  04E8  0012               	moviw fsr0++
  2095  04E9  1D03               	btfss	3,2
  2096  04EA  2CEC               	goto	u711
  2097  04EB  2CED               	goto	u710
  2098  04EC                     u711:
  2099  04EC  2CD6               	goto	l1201
  2100  04ED                     u710:
  2101  04ED                     l90:
  2102  04ED  0008               	return
  2103  04EE                     __end_of_send_string:
  2104                           
  2105                           	psect	text3
  2106  0476                     __ptext3:	
  2107 ;; *************** function _send_char *****************
  2108 ;; Defined at:
  2109 ;;		line 115 in file "C:/Users/rocke/Desktop/PIC16-PTS/main.c"
  2110 ;; Parameters:    Size  Location     Type
  2111 ;;  word            1    wreg     unsigned char 
  2112 ;; Auto vars:     Size  Location     Type
  2113 ;;  word            1    0[COMMON] unsigned char 
  2114 ;; Return value:  Size  Location     Type
  2115 ;;                  1    wreg      void 
  2116 ;; Registers used:
  2117 ;;		wreg
  2118 ;; Tracked objects:
  2119 ;;		On entry : 0/0
  2120 ;;		On exit  : 0/0
  2121 ;;		Unchanged: 0/0
  2122 ;; Data sizes:     COMMON   BANK0   BANK1   BANK2   BANK3   BANK4   BANK5   BANK6   BANK7   BANK8   BANK9  BANK10  BANK1
      +1  BANK12  BANK13  BANK14  BANK15  BANK16  BANK17  BANK18  BANK19  BANK20  BANK21  BANK22  BANK23  BANK24  BANK25  BANK2
      +6  BANK27  BANK28  BANK29  BANK30  BANK31  BANK32  BANK33  BANK34  BANK35  BANK36  BANK37  BANK38  BANK39  BANK40  BANK4
      +1  BANK42  BANK43  BANK44  BANK45  BANK46  BANK47  BANK48  BANK49  BANK50
  2123 ;;      Params:         0       0       0       0       0       0       0       0       0       0       0       0       
      +0       0       0       0       0       0       0       0       0       0       0       0       0       0       0       
      +0       0       0       0       0       0       0       0       0       0       0       0       0       0       0       
      +0       0       0       0       0       0       0       0       0       0
  2124 ;;      Locals:         1       0       0       0       0       0       0       0       0       0       0       0       
      +0       0       0       0       0       0       0       0       0       0       0       0       0       0       0       
      +0       0       0       0       0       0       0       0       0       0       0       0       0       0       0       
      +0       0       0       0       0       0       0       0       0       0
  2125 ;;      Temps:          0       0       0       0       0       0       0       0       0       0       0       0       
      +0       0       0       0       0       0       0       0       0       0       0       0       0       0       0       
      +0       0       0       0       0       0       0       0       0       0       0       0       0       0       0       
      +0       0       0       0       0       0       0       0       0       0
  2126 ;;      Totals:         1       0       0       0       0       0       0       0       0       0       0       0       
      +0       0       0       0       0       0       0       0       0       0       0       0       0       0       0       
      +0       0       0       0       0       0       0       0       0       0       0       0       0       0       0       
      +0       0       0       0       0       0       0       0       0       0
  2127 ;;Total ram usage:        1 bytes
  2128 ;; Hardware stack levels used: 1
  2129 ;; This function calls:
  2130 ;;		Nothing
  2131 ;; This function is called by:
  2132 ;;		_send_string
  2133 ;; This function uses a non-reentrant model
  2134 ;;
  2135                           
  2136                           
  2137                           ;psect for function _send_char
  2138  0476                     _send_char:
  2139                           
  2140                           ;incstack = 0
  2141                           ; Regs used in _send_char: [wreg]
  2142                           ;send_char@word stored from wreg
  2143  0476  00F0               	movwf	send_char@word
  2144  0477                     l1075:
  2145  0477                     l81:	
  2146                           ;C:/Users/rocke/Desktop/PIC16-PTS/main.c: 116:     while(!TXIF);
  2147                           
  2148  0477  014E               	movlb	14	; select bank14
  2149  0478  1E0F               	btfss	15,4	;volatile
  2150  0479  2C7B               	goto	u491
  2151  047A  2C7C               	goto	u490
  2152  047B                     u491:
  2153  047B  2C77               	goto	l81
  2154  047C                     u490:
  2155  047C                     l1077:
  2156                           
  2157                           ;C:/Users/rocke/Desktop/PIC16-PTS/main.c: 117:     TXREG = word;
  2158  047C  0870               	movf	send_char@word,w
  2159  047D  0142               	movlb	2	; select bank2
  2160  047E  009A               	movwf	26	;volatile
  2161  047F                     l84:
  2162  047F  0008               	return
  2163  0480                     __end_of_send_char:
  2164                           
  2165                           	psect	text4
  2166  04BD                     __ptext4:	
  2167 ;; *************** function _ranging_sys_init *****************
  2168 ;; Defined at:
  2169 ;;		line 134 in file "C:/Users/rocke/Desktop/PIC16-PTS/main.c"
  2170 ;; Parameters:    Size  Location     Type
  2171 ;;		None
  2172 ;; Auto vars:     Size  Location     Type
  2173 ;;		None
  2174 ;; Return value:  Size  Location     Type
  2175 ;;                  1    wreg      void 
  2176 ;; Registers used:
  2177 ;;		wreg, status,2, status,0
  2178 ;; Tracked objects:
  2179 ;;		On entry : 0/0
  2180 ;;		On exit  : 0/0
  2181 ;;		Unchanged: 0/0
  2182 ;; Data sizes:     COMMON   BANK0   BANK1   BANK2   BANK3   BANK4   BANK5   BANK6   BANK7   BANK8   BANK9  BANK10  BANK1
      +1  BANK12  BANK13  BANK14  BANK15  BANK16  BANK17  BANK18  BANK19  BANK20  BANK21  BANK22  BANK23  BANK24  BANK25  BANK2
      +6  BANK27  BANK28  BANK29  BANK30  BANK31  BANK32  BANK33  BANK34  BANK35  BANK36  BANK37  BANK38  BANK39  BANK40  BANK4
      +1  BANK42  BANK43  BANK44  BANK45  BANK46  BANK47  BANK48  BANK49  BANK50
  2183 ;;      Params:         0       0       0       0       0       0       0       0       0       0       0       0       
      +0       0       0       0       0       0       0       0       0       0       0       0       0       0       0       
      +0       0       0       0       0       0       0       0       0       0       0       0       0       0       0       
      +0       0       0       0       0       0       0       0       0       0
  2184 ;;      Locals:         0       0       0       0       0       0       0       0       0       0       0       0       
      +0       0       0       0       0       0       0       0       0       0       0       0       0       0       0       
      +0       0       0       0       0       0       0       0       0       0       0       0       0       0       0       
      +0       0       0       0       0       0       0       0       0       0
  2185 ;;      Temps:          0       0       0       0       0       0       0       0       0       0       0       0       
      +0       0       0       0       0       0       0       0       0       0       0       0       0       0       0       
      +0       0       0       0       0       0       0       0       0       0       0       0       0       0       0       
      +0       0       0       0       0       0       0       0       0       0
  2186 ;;      Totals:         0       0       0       0       0       0       0       0       0       0       0       0       
      +0       0       0       0       0       0       0       0       0       0       0       0       0       0       0       
      +0       0       0       0       0       0       0       0       0       0       0       0       0       0       0       
      +0       0       0       0       0       0       0       0       0       0
  2187 ;;Total ram usage:        0 bytes
  2188 ;; Hardware stack levels used: 1
  2189 ;; This function calls:
  2190 ;;		Nothing
  2191 ;; This function is called by:
  2192 ;;		_main
  2193 ;; This function uses a non-reentrant model
  2194 ;;
  2195                           
  2196                           
  2197                           ;psect for function _ranging_sys_init
  2198  04BD                     _ranging_sys_init:
  2199  04BD                     l1207:	
  2200                           ;incstack = 0
  2201                           ; Regs used in _ranging_sys_init: [wreg+status,2+status,0]
  2202                           
  2203                           
  2204                           ;C:/Users/rocke/Desktop/PIC16-PTS/main.c: 137:     TRISBbits.TRISB4 = 1;
  2205  04BD  0140               	movlb	0	; select bank0
  2206  04BE  1612               	bsf	18,4	;volatile
  2207                           
  2208                           ;C:/Users/rocke/Desktop/PIC16-PTS/main.c: 138:     TRISBbits.TRISB3 = 0;
  2209  04BF  1192               	bcf	18,3	;volatile
  2210                           
  2211                           ;C:/Users/rocke/Desktop/PIC16-PTS/main.c: 139:     TRISBbits.TRISB2 = 0;
  2212  04C0  1112               	bcf	18,2	;volatile
  2213                           
  2214                           ;C:/Users/rocke/Desktop/PIC16-PTS/main.c: 140:     TRISBbits.TRISB1 = 1;
  2215  04C1  1492               	bsf	18,1	;volatile
  2216                           
  2217                           ;C:/Users/rocke/Desktop/PIC16-PTS/main.c: 141:     TRISBbits.TRISB0 = 1;
  2218  04C2  1412               	bsf	18,0	;volatile
  2219  04C3                     l1209:
  2220                           
  2221                           ;C:/Users/rocke/Desktop/PIC16-PTS/main.c: 142:     ANSELB = 0x00;
  2222  04C3  017E               	movlb	62	; select bank62
  2223  04C4  01C3               	clrf	67	;volatile
  2224  04C5                     l1211:
  2225                           
  2226                           ;C:/Users/rocke/Desktop/PIC16-PTS/main.c: 144:     LATBbits.LATB2 = 1;
  2227  04C5  0140               	movlb	0	; select bank0
  2228  04C6  1517               	bsf	23,2	;volatile
  2229  04C7                     l1213:
  2230                           
  2231                           ;C:/Users/rocke/Desktop/PIC16-PTS/main.c: 148:     T0CON0bits.T0EN = 0;
  2232  04C7  139E               	bcf	30,7	;volatile
  2233  04C8                     l1215:
  2234                           
  2235                           ;C:/Users/rocke/Desktop/PIC16-PTS/main.c: 149:     T0CON0bits.T016BIT = 1;
  2236  04C8  161E               	bsf	30,4	;volatile
  2237  04C9                     l1217:
  2238                           
  2239                           ;C:/Users/rocke/Desktop/PIC16-PTS/main.c: 150:     T0CON0bits.T0OUTPS = 0b0000;
  2240  04C9  30F0               	movlw	-16
  2241  04CA  059E               	andwf	30,f	;volatile
  2242  04CB                     l1219:
  2243                           
  2244                           ;C:/Users/rocke/Desktop/PIC16-PTS/main.c: 152:     T0CON1bits.T0CS = 0b010;
  2245  04CB  081F               	movf	31,w	;volatile
  2246  04CC  391F               	andlw	-225
  2247  04CD  3840               	iorlw	64
  2248  04CE  009F               	movwf	31	;volatile
  2249  04CF                     l1221:
  2250                           
  2251                           ;C:/Users/rocke/Desktop/PIC16-PTS/main.c: 153:     T0CON1bits.T0ASYNC = 1;
  2252  04CF  161F               	bsf	31,4	;volatile
  2253  04D0                     l1223:
  2254                           
  2255                           ;C:/Users/rocke/Desktop/PIC16-PTS/main.c: 154:     T0CON1bits.T0CKPS = 0b0001;
  2256  04D0  081F               	movf	31,w	;volatile
  2257  04D1  39F0               	andlw	-16
  2258  04D2  3801               	iorlw	1
  2259  04D3  009F               	movwf	31	;volatile
  2260  04D4                     l93:
  2261  04D4  0008               	return
  2262  04D5                     __end_of_ranging_sys_init:
  2263                           
  2264                           	psect	text5
  2265  05B3                     __ptext5:	
  2266 ;; *************** function _itoa *****************
  2267 ;; Defined at:
  2268 ;;		line 194 in file "C:/Users/rocke/Desktop/PIC16-PTS/main.c"
  2269 ;; Parameters:    Size  Location     Type
  2270 ;;  value           2    4[BANK0 ] int 
  2271 ;; Auto vars:     Size  Location     Type
  2272 ;;  c               2    8[BANK0 ] int 
  2273 ;;  original        2    6[BANK0 ] int 
  2274 ;; Return value:  Size  Location     Type
  2275 ;;                  1    wreg      PTR unsigned char 
  2276 ;; Registers used:
  2277 ;;		wreg, fsr1l, fsr1h, status,2, status,0, pclath, cstack
  2278 ;; Tracked objects:
  2279 ;;		On entry : 0/0
  2280 ;;		On exit  : 0/0
  2281 ;;		Unchanged: 0/0
  2282 ;; Data sizes:     COMMON   BANK0   BANK1   BANK2   BANK3   BANK4   BANK5   BANK6   BANK7   BANK8   BANK9  BANK10  BANK1
      +1  BANK12  BANK13  BANK14  BANK15  BANK16  BANK17  BANK18  BANK19  BANK20  BANK21  BANK22  BANK23  BANK24  BANK25  BANK2
      +6  BANK27  BANK28  BANK29  BANK30  BANK31  BANK32  BANK33  BANK34  BANK35  BANK36  BANK37  BANK38  BANK39  BANK40  BANK4
      +1  BANK42  BANK43  BANK44  BANK45  BANK46  BANK47  BANK48  BANK49  BANK50
  2283 ;;      Params:         0       2       0       0       0       0       0       0       0       0       0       0       
      +0       0       0       0       0       0       0       0       0       0       0       0       0       0       0       
      +0       0       0       0       0       0       0       0       0       0       0       0       0       0       0       
      +0       0       0       0       0       0       0       0       0       0
  2284 ;;      Locals:         0       4       0       0       0       0       0       0       0       0       0       0       
      +0       0       0       0       0       0       0       0       0       0       0       0       0       0       0       
      +0       0       0       0       0       0       0       0       0       0       0       0       0       0       0       
      +0       0       0       0       0       0       0       0       0       0
  2285 ;;      Temps:          1       0       0       0       0       0       0       0       0       0       0       0       
      +0       0       0       0       0       0       0       0       0       0       0       0       0       0       0       
      +0       0       0       0       0       0       0       0       0       0       0       0       0       0       0       
      +0       0       0       0       0       0       0       0       0       0
  2286 ;;      Totals:         1       6       0       0       0       0       0       0       0       0       0       0       
      +0       0       0       0       0       0       0       0       0       0       0       0       0       0       0       
      +0       0       0       0       0       0       0       0       0       0       0       0       0       0       0       
      +0       0       0       0       0       0       0       0       0       0
  2287 ;;Total ram usage:        7 bytes
  2288 ;; Hardware stack levels used: 1
  2289 ;; Hardware stack levels required when called: 1
  2290 ;; This function calls:
  2291 ;;		___awdiv
  2292 ;;		___awmod
  2293 ;; This function is called by:
  2294 ;;		_main
  2295 ;; This function uses a non-reentrant model
  2296 ;;
  2297                           
  2298                           
  2299                           ;psect for function _itoa
  2300  05B3                     _itoa:
  2301  05B3                     l1247:	
  2302                           ;incstack = 0
  2303                           ; Regs used in _itoa: [wreg+fsr1l+fsr1h+status,2+status,0+pclath+cstack]
  2304                           
  2305                           
  2306                           ;C:/Users/rocke/Desktop/PIC16-PTS/main.c: 194: char *itoa(int value);C:/Users/rocke/Desk
      +                          top/PIC16-PTS/main.c: 195:  {;C:/Users/rocke/Desktop/PIC16-PTS/main.c: 196:      static 
      +                          char buffer[12];;C:/Users/rocke/Desktop/PIC16-PTS/main.c: 197:      int original = value
      +                          ;
  2307  05B3  0140               	movlb	0	; select bank0
  2308  05B4  0825               	movf	itoa@value+1,w
  2309  05B5  00A7               	movwf	itoa@original+1
  2310  05B6  0824               	movf	itoa@value,w
  2311  05B7  00A6               	movwf	itoa@original
  2312                           
  2313                           ;C:/Users/rocke/Desktop/PIC16-PTS/main.c: 199:      int c = sizeof(buffer)-1;
  2314  05B8  300B               	movlw	11
  2315  05B9  00A8               	movwf	itoa@c
  2316  05BA  3000               	movlw	0
  2317  05BB  00A9               	movwf	itoa@c+1
  2318  05BC                     l1249:
  2319                           
  2320                           ;C:/Users/rocke/Desktop/PIC16-PTS/main.c: 201:      buffer[c] = 0;
  2321  05BC  01C4               	clrf	itoa@buffer+11
  2322  05BD                     l1251:
  2323                           
  2324                           ;C:/Users/rocke/Desktop/PIC16-PTS/main.c: 203:      if (value < 0)
  2325  05BD  1FA5               	btfss	itoa@value+1,7
  2326  05BE  2DC0               	goto	u781
  2327  05BF  2DC1               	goto	u780
  2328  05C0                     u781:
  2329  05C0  2DC6               	goto	l1255
  2330  05C1                     u780:
  2331  05C1                     l1253:
  2332                           
  2333                           ;C:/Users/rocke/Desktop/PIC16-PTS/main.c: 204:          value = -value;
  2334  05C1  09A4               	comf	itoa@value,f
  2335  05C2  09A5               	comf	itoa@value+1,f
  2336  05C3  0AA4               	incf	itoa@value,f
  2337  05C4  1903               	skipnz
  2338  05C5  0AA5               	incf	itoa@value+1,f
  2339  05C6                     l1255:
  2340                           
  2341                           ;C:/Users/rocke/Desktop/PIC16-PTS/main.c: 207:      {;C:/Users/rocke/Desktop/PIC16-PTS/m
      +                          ain.c: 208:          buffer[--c] = (value % 10) + '0';
  2342  05C6  300A               	movlw	10
  2343  05C7  00F0               	movwf	___awmod@divisor
  2344  05C8  3000               	movlw	0
  2345  05C9  00F1               	movwf	___awmod@divisor+1
  2346  05CA  0825               	movf	itoa@value+1,w
  2347  05CB  00F3               	movwf	___awmod@dividend+1
  2348  05CC  0824               	movf	itoa@value,w
  2349  05CD  00F2               	movwf	___awmod@dividend
  2350  05CE  3185  2560  3185   	fcall	___awmod
  2351  05D1  0870               	movf	?___awmod,w
  2352  05D2  3E30               	addlw	48
  2353  05D3  00FB               	movwf	??_itoa
  2354  05D4  30FF               	movlw	255
  2355  05D5  0140               	movlb	0	; select bank0
  2356  05D6  07A8               	addwf	itoa@c,f
  2357  05D7  30FF               	movlw	255
  2358  05D8  3DA9               	addwfc	itoa@c+1,f
  2359  05D9  0828               	movf	itoa@c,w
  2360  05DA  3E39               	addlw	(low (itoa@buffer| 0))& (0+255)
  2361  05DB  0086               	movwf	6
  2362  05DC  0187               	clrf	7
  2363  05DD  087B               	movf	??_itoa,w
  2364  05DE  0081               	movwf	1
  2365  05DF                     l1257:
  2366                           
  2367                           ;C:/Users/rocke/Desktop/PIC16-PTS/main.c: 209:          value /= 10;
  2368  05DF  300A               	movlw	10
  2369  05E0  00F6               	movwf	___awdiv@divisor
  2370  05E1  3000               	movlw	0
  2371  05E2  00F7               	movwf	___awdiv@divisor+1
  2372  05E3  0825               	movf	itoa@value+1,w
  2373  05E4  00F9               	movwf	___awdiv@dividend+1
  2374  05E5  0824               	movf	itoa@value,w
  2375  05E6  00F8               	movwf	___awdiv@dividend
  2376  05E7  3186  2608  3185   	fcall	___awdiv
  2377  05EA  0877               	movf	?___awdiv+1,w
  2378  05EB  0140               	movlb	0	; select bank0
  2379  05EC  00A5               	movwf	itoa@value+1
  2380  05ED  0876               	movf	?___awdiv,w
  2381  05EE  00A4               	movwf	itoa@value
  2382  05EF                     l1259:
  2383                           
  2384                           ;C:/Users/rocke/Desktop/PIC16-PTS/main.c: 210:      } while (value);
  2385  05EF  0824               	movf	itoa@value,w
  2386  05F0  0425               	iorwf	itoa@value+1,w
  2387  05F1  1D03               	btfss	3,2
  2388  05F2  2DF4               	goto	u791
  2389  05F3  2DF5               	goto	u790
  2390  05F4                     u791:
  2391  05F4  2DC6               	goto	l1255
  2392  05F5                     u790:
  2393  05F5                     l109:
  2394                           
  2395                           ;C:/Users/rocke/Desktop/PIC16-PTS/main.c: 212:      if (original < 0)
  2396  05F5  1FA7               	btfss	itoa@original+1,7
  2397  05F6  2DF8               	goto	u801
  2398  05F7  2DF9               	goto	u800
  2399  05F8                     u801:
  2400  05F8  2E05               	goto	l1263
  2401  05F9                     u800:
  2402  05F9                     l1261:
  2403                           
  2404                           ;C:/Users/rocke/Desktop/PIC16-PTS/main.c: 213:          buffer[--c] = '-';
  2405  05F9  302D               	movlw	45
  2406  05FA  00FB               	movwf	??_itoa
  2407  05FB  30FF               	movlw	255
  2408  05FC  07A8               	addwf	itoa@c,f
  2409  05FD  30FF               	movlw	255
  2410  05FE  3DA9               	addwfc	itoa@c+1,f
  2411  05FF  0828               	movf	itoa@c,w
  2412  0600  3E39               	addlw	(low (itoa@buffer| 0))& (0+255)
  2413  0601  0086               	movwf	6
  2414  0602  0187               	clrf	7
  2415  0603  087B               	movf	??_itoa,w
  2416  0604  0081               	movwf	1
  2417  0605                     l1263:
  2418                           
  2419                           ;C:/Users/rocke/Desktop/PIC16-PTS/main.c: 215:      return &buffer[c];
  2420  0605  0828               	movf	itoa@c,w
  2421  0606  3E39               	addlw	(low (itoa@buffer| 0))& (0+255)
  2422  0607                     l111:
  2423  0607  0008               	return
  2424  0608                     __end_of_itoa:
  2425                           
  2426                           	psect	text6
  2427  0668                     __ptext6:	
  2428 ;; *************** function _dpsw_to_dc *****************
  2429 ;; Defined at:
  2430 ;;		line 246 in file "C:/Users/rocke/Desktop/PIC16-PTS/main.c"
  2431 ;; Parameters:    Size  Location     Type
  2432 ;;		None
  2433 ;; Auto vars:     Size  Location     Type
  2434 ;;  binary_d        2   19[BANK0 ] int 
  2435 ;;  d3              2   14[BANK0 ] int 
  2436 ;;  d2              2   12[BANK0 ] int 
  2437 ;;  d1              2   10[BANK0 ] int 
  2438 ;;  d0              2    8[BANK0 ] int 
  2439 ;;  decimal_num     1   18[BANK0 ] unsigned char 
  2440 ;;  num_base        1   17[BANK0 ] unsigned char 
  2441 ;;  rem             1   16[BANK0 ] unsigned char 
  2442 ;; Return value:  Size  Location     Type
  2443 ;;                  1    wreg      unsigned char 
  2444 ;; Registers used:
  2445 ;;		wreg, status,2, status,0, pclath, cstack
  2446 ;; Tracked objects:
  2447 ;;		On entry : 0/0
  2448 ;;		On exit  : 0/0
  2449 ;;		Unchanged: 0/0
  2450 ;; Data sizes:     COMMON   BANK0   BANK1   BANK2   BANK3   BANK4   BANK5   BANK6   BANK7   BANK8   BANK9  BANK10  BANK1
      +1  BANK12  BANK13  BANK14  BANK15  BANK16  BANK17  BANK18  BANK19  BANK20  BANK21  BANK22  BANK23  BANK24  BANK25  BANK2
      +6  BANK27  BANK28  BANK29  BANK30  BANK31  BANK32  BANK33  BANK34  BANK35  BANK36  BANK37  BANK38  BANK39  BANK40  BANK4
      +1  BANK42  BANK43  BANK44  BANK45  BANK46  BANK47  BANK48  BANK49  BANK50
  2451 ;;      Params:         0       0       0       0       0       0       0       0       0       0       0       0       
      +0       0       0       0       0       0       0       0       0       0       0       0       0       0       0       
      +0       0       0       0       0       0       0       0       0       0       0       0       0       0       0       
      +0       0       0       0       0       0       0       0       0       0
  2452 ;;      Locals:         0      13       0       0       0       0       0       0       0       0       0       0       
      +0       0       0       0       0       0       0       0       0       0       0       0       0       0       0       
      +0       0       0       0       0       0       0       0       0       0       0       0       0       0       0       
      +0       0       0       0       0       0       0       0       0       0
  2453 ;;      Temps:          0       4       0       0       0       0       0       0       0       0       0       0       
      +0       0       0       0       0       0       0       0       0       0       0       0       0       0       0       
      +0       0       0       0       0       0       0       0       0       0       0       0       0       0       0       
      +0       0       0       0       0       0       0       0       0       0
  2454 ;;      Totals:         0      17       0       0       0       0       0       0       0       0       0       0       
      +0       0       0       0       0       0       0       0       0       0       0       0       0       0       0       
      +0       0       0       0       0       0       0       0       0       0       0       0       0       0       0       
      +0       0       0       0       0       0       0       0       0       0
  2455 ;;Total ram usage:       17 bytes
  2456 ;; Hardware stack levels used: 1
  2457 ;; Hardware stack levels required when called: 1
  2458 ;; This function calls:
  2459 ;;		___awdiv
  2460 ;;		___awmod
  2461 ;;		___bmul
  2462 ;; This function is called by:
  2463 ;;		_main
  2464 ;; This function uses a non-reentrant model
  2465 ;;
  2466                           
  2467                           
  2468                           ;psect for function _dpsw_to_dc
  2469  0668                     _dpsw_to_dc:
  2470  0668                     l1277:	
  2471                           ;incstack = 0
  2472                           ; Regs used in _dpsw_to_dc: [wreg+status,2+status,0+pclath+cstack]
  2473                           
  2474                           
  2475                           ;C:/Users/rocke/Desktop/PIC16-PTS/main.c: 249:     int d0;;C:/Users/rocke/Desktop/PIC16-
      +                          PTS/main.c: 250:     int d1;;C:/Users/rocke/Desktop/PIC16-PTS/main.c: 251:     int d2;;C
      +                          :/Users/rocke/Desktop/PIC16-PTS/main.c: 252:     int d3;;C:/Users/rocke/Desktop/PIC16-PT
      +                          S/main.c: 254:     if(RA0){d0 = 1000;} else {d0 = 0;}
  2476  0668  0140               	movlb	0	; select bank0
  2477  0669  1C0C               	btfss	12,0	;volatile
  2478  066A  2E6C               	goto	u831
  2479  066B  2E6D               	goto	u830
  2480  066C                     u831:
  2481  066C  2E72               	goto	l1281
  2482  066D                     u830:
  2483  066D                     l1279:
  2484  066D  30E8               	movlw	232
  2485  066E  00A8               	movwf	dpsw_to_dc@d0
  2486  066F  3003               	movlw	3
  2487  0670  00A9               	movwf	dpsw_to_dc@d0+1
  2488  0671  2E74               	goto	l1283
  2489  0672                     l1281:
  2490  0672  01A8               	clrf	dpsw_to_dc@d0
  2491  0673  01A9               	clrf	dpsw_to_dc@d0+1
  2492  0674                     l1283:
  2493                           
  2494                           ;C:/Users/rocke/Desktop/PIC16-PTS/main.c: 255:     if(RA1){d1 = 100;} else {d1 = 0;}
  2495  0674  1C8C               	btfss	12,1	;volatile
  2496  0675  2E77               	goto	u841
  2497  0676  2E78               	goto	u840
  2498  0677                     u841:
  2499  0677  2E7D               	goto	l1287
  2500  0678                     u840:
  2501  0678                     l1285:
  2502  0678  3064               	movlw	100
  2503  0679  00AA               	movwf	dpsw_to_dc@d1
  2504  067A  3000               	movlw	0
  2505  067B  00AB               	movwf	dpsw_to_dc@d1+1
  2506  067C  2E7F               	goto	l1289
  2507  067D                     l1287:
  2508  067D  01AA               	clrf	dpsw_to_dc@d1
  2509  067E  01AB               	clrf	dpsw_to_dc@d1+1
  2510  067F                     l1289:
  2511                           
  2512                           ;C:/Users/rocke/Desktop/PIC16-PTS/main.c: 256:     if(RA2){d2 = 10;} else {d2 = 0;}
  2513  067F  1D0C               	btfss	12,2	;volatile
  2514  0680  2E82               	goto	u851
  2515  0681  2E83               	goto	u850
  2516  0682                     u851:
  2517  0682  2E88               	goto	l1293
  2518  0683                     u850:
  2519  0683                     l1291:
  2520  0683  300A               	movlw	10
  2521  0684  00AC               	movwf	dpsw_to_dc@d2
  2522  0685  3000               	movlw	0
  2523  0686  00AD               	movwf	dpsw_to_dc@d2+1
  2524  0687  2E8A               	goto	l1295
  2525  0688                     l1293:
  2526  0688  01AC               	clrf	dpsw_to_dc@d2
  2527  0689  01AD               	clrf	dpsw_to_dc@d2+1
  2528  068A                     l1295:
  2529                           
  2530                           ;C:/Users/rocke/Desktop/PIC16-PTS/main.c: 257:     if(RA3){d3 = 1;} else {d3 = 0;}
  2531  068A  1D8C               	btfss	12,3	;volatile
  2532  068B  2E8D               	goto	u861
  2533  068C  2E8E               	goto	u860
  2534  068D                     u861:
  2535  068D  2E93               	goto	l1299
  2536  068E                     u860:
  2537  068E                     l1297:
  2538  068E  3001               	movlw	1
  2539  068F  00AE               	movwf	dpsw_to_dc@d3
  2540  0690  3000               	movlw	0
  2541  0691  00AF               	movwf	dpsw_to_dc@d3+1
  2542  0692  2E95               	goto	l1301
  2543  0693                     l1299:
  2544  0693  01AE               	clrf	dpsw_to_dc@d3
  2545  0694  01AF               	clrf	dpsw_to_dc@d3+1
  2546  0695                     l1301:
  2547                           
  2548                           ;C:/Users/rocke/Desktop/PIC16-PTS/main.c: 259:     int binary_d = d0 + d1 + d2 + d3;
  2549  0695  082A               	movf	dpsw_to_dc@d1,w
  2550  0696  0728               	addwf	dpsw_to_dc@d0,w
  2551  0697  00A4               	movwf	??_dpsw_to_dc
  2552  0698  082B               	movf	dpsw_to_dc@d1+1,w
  2553  0699  3D29               	addwfc	dpsw_to_dc@d0+1,w
  2554  069A  00A5               	movwf	??_dpsw_to_dc+1
  2555  069B  082C               	movf	dpsw_to_dc@d2,w
  2556  069C  0724               	addwf	??_dpsw_to_dc,w
  2557  069D  00A6               	movwf	??_dpsw_to_dc+2
  2558  069E  082D               	movf	dpsw_to_dc@d2+1,w
  2559  069F  3D25               	addwfc	??_dpsw_to_dc+1,w
  2560  06A0  00A7               	movwf	??_dpsw_to_dc+3
  2561  06A1  082E               	movf	dpsw_to_dc@d3,w
  2562  06A2  0726               	addwf	??_dpsw_to_dc+2,w
  2563  06A3  00B3               	movwf	dpsw_to_dc@binary_d
  2564  06A4  082F               	movf	dpsw_to_dc@d3+1,w
  2565  06A5  3D27               	addwfc	??_dpsw_to_dc+3,w
  2566  06A6  00B4               	movwf	dpsw_to_dc@binary_d+1
  2567  06A7                     l1303:
  2568                           
  2569                           ;C:/Users/rocke/Desktop/PIC16-PTS/main.c: 261:     if(binary_d == 0)
  2570  06A7  0833               	movf	dpsw_to_dc@binary_d,w
  2571  06A8  0434               	iorwf	dpsw_to_dc@binary_d+1,w
  2572  06A9  1D03               	btfss	3,2
  2573  06AA  2EAC               	goto	u871
  2574  06AB  2EAD               	goto	u870
  2575  06AC                     u871:
  2576  06AC  2EAF               	goto	l131
  2577  06AD                     u870:
  2578  06AD                     l1305:
  2579                           
  2580                           ;C:/Users/rocke/Desktop/PIC16-PTS/main.c: 262:     {;C:/Users/rocke/Desktop/PIC16-PTS/ma
      +                          in.c: 263:         return 0;
  2581  06AD  3000               	movlw	0
  2582  06AE  2EF7               	goto	l132
  2583  06AF                     l131:	
  2584                           ;C:/Users/rocke/Desktop/PIC16-PTS/main.c: 264:     }
  2585                           
  2586                           
  2587                           ;C:/Users/rocke/Desktop/PIC16-PTS/main.c: 266:     uint8_t num_base = 1;
  2588  06AF  01B1               	clrf	dpsw_to_dc@num_base
  2589  06B0  0AB1               	incf	dpsw_to_dc@num_base,f
  2590  06B1                     l1309:
  2591  06B1                     l1311:
  2592                           
  2593                           ;C:/Users/rocke/Desktop/PIC16-PTS/main.c: 268:     uint8_t decimal_num = 5;
  2594  06B1  3005               	movlw	5
  2595  06B2  00A4               	movwf	??_dpsw_to_dc
  2596  06B3  0824               	movf	??_dpsw_to_dc,w
  2597  06B4  00B2               	movwf	dpsw_to_dc@decimal_num
  2598                           
  2599                           ;C:/Users/rocke/Desktop/PIC16-PTS/main.c: 270:     while ( binary_d > 0)
  2600  06B5  2EE8               	goto	l1317
  2601  06B6                     l1313:
  2602                           
  2603                           ;C:/Users/rocke/Desktop/PIC16-PTS/main.c: 271:     {;C:/Users/rocke/Desktop/PIC16-PTS/ma
      +                          in.c: 272:         rem = binary_d % 10;
  2604  06B6  300A               	movlw	10
  2605  06B7  00F0               	movwf	___awmod@divisor
  2606  06B8  3000               	movlw	0
  2607  06B9  00F1               	movwf	___awmod@divisor+1
  2608  06BA  0140               	movlb	0	; select bank0
  2609  06BB  0834               	movf	dpsw_to_dc@binary_d+1,w
  2610  06BC  00F3               	movwf	___awmod@dividend+1
  2611  06BD  0833               	movf	dpsw_to_dc@binary_d,w
  2612  06BE  00F2               	movwf	___awmod@dividend
  2613  06BF  3185  2560  3186   	fcall	___awmod
  2614  06C2  0870               	movf	?___awmod,w
  2615  06C3  0140               	movlb	0	; select bank0
  2616  06C4  00A4               	movwf	??_dpsw_to_dc
  2617  06C5  0824               	movf	??_dpsw_to_dc,w
  2618  06C6  00B0               	movwf	dpsw_to_dc@rem
  2619                           
  2620                           ;C:/Users/rocke/Desktop/PIC16-PTS/main.c: 273:         decimal_num = decimal_num + rem *
      +                           num_base;
  2621  06C7  0831               	movf	dpsw_to_dc@num_base,w
  2622  06C8  00A4               	movwf	??_dpsw_to_dc
  2623  06C9  0824               	movf	??_dpsw_to_dc,w
  2624  06CA  00F0               	movwf	___bmul@multiplicand
  2625  06CB  0830               	movf	dpsw_to_dc@rem,w
  2626  06CC  3184  2491  3186   	fcall	___bmul
  2627  06CF  0140               	movlb	0	; select bank0
  2628  06D0  0732               	addwf	dpsw_to_dc@decimal_num,w
  2629  06D1  00A5               	movwf	??_dpsw_to_dc+1
  2630  06D2  0825               	movf	??_dpsw_to_dc+1,w
  2631  06D3  00B2               	movwf	dpsw_to_dc@decimal_num
  2632                           
  2633                           ;C:/Users/rocke/Desktop/PIC16-PTS/main.c: 274:         binary_d = binary_d/ 10;
  2634  06D4  300A               	movlw	10
  2635  06D5  00F6               	movwf	___awdiv@divisor
  2636  06D6  3000               	movlw	0
  2637  06D7  00F7               	movwf	___awdiv@divisor+1
  2638  06D8  0834               	movf	dpsw_to_dc@binary_d+1,w
  2639  06D9  00F9               	movwf	___awdiv@dividend+1
  2640  06DA  0833               	movf	dpsw_to_dc@binary_d,w
  2641  06DB  00F8               	movwf	___awdiv@dividend
  2642  06DC  3186  2608  3186   	fcall	___awdiv
  2643  06DF  0877               	movf	?___awdiv+1,w
  2644  06E0  0140               	movlb	0	; select bank0
  2645  06E1  00B4               	movwf	dpsw_to_dc@binary_d+1
  2646  06E2  0876               	movf	?___awdiv,w
  2647  06E3  00B3               	movwf	dpsw_to_dc@binary_d
  2648  06E4                     l1315:
  2649                           
  2650                           ;C:/Users/rocke/Desktop/PIC16-PTS/main.c: 275:         num_base = num_base * 2;
  2651  06E4  3531               	lslf	dpsw_to_dc@num_base,w
  2652  06E5  00A4               	movwf	??_dpsw_to_dc
  2653  06E6  0824               	movf	??_dpsw_to_dc,w
  2654  06E7  00B1               	movwf	dpsw_to_dc@num_base
  2655  06E8                     l1317:
  2656                           
  2657                           ;C:/Users/rocke/Desktop/PIC16-PTS/main.c: 270:     while ( binary_d > 0)
  2658  06E8  0834               	movf	dpsw_to_dc@binary_d+1,w
  2659  06E9  3A80               	xorlw	128
  2660  06EA  00A4               	movwf	??_dpsw_to_dc
  2661  06EB  3080               	movlw	128
  2662  06EC  0224               	subwf	??_dpsw_to_dc,w
  2663  06ED  1D03               	skipz
  2664  06EE  2EF1               	goto	u885
  2665  06EF  3001               	movlw	1
  2666  06F0  0233               	subwf	dpsw_to_dc@binary_d,w
  2667  06F1                     u885:
  2668  06F1  1803               	skipnc
  2669  06F2  2EF4               	goto	u881
  2670  06F3  2EF5               	goto	u880
  2671  06F4                     u881:
  2672  06F4  2EB6               	goto	l1313
  2673  06F5                     u880:
  2674  06F5                     l1319:
  2675                           
  2676                           ;C:/Users/rocke/Desktop/PIC16-PTS/main.c: 279:     return decimal_num;
  2677  06F5  0140               	movlb	0	; select bank0
  2678  06F6  0832               	movf	dpsw_to_dc@decimal_num,w
  2679  06F7                     l132:
  2680  06F7  0008               	return
  2681  06F8                     __end_of_dpsw_to_dc:
  2682                           
  2683                           	psect	text7
  2684  0491                     __ptext7:	
  2685 ;; *************** function ___bmul *****************
  2686 ;; Defined at:
  2687 ;;		line 4 in file "C:\Program Files\Microchip\xc8\v2.32\pic\sources\c99\common\Umul8.c"
  2688 ;; Parameters:    Size  Location     Type
  2689 ;;  multiplier      1    wreg     unsigned char 
  2690 ;;  multiplicand    1    0[COMMON] unsigned char 
  2691 ;; Auto vars:     Size  Location     Type
  2692 ;;  multiplier      1    3[COMMON] unsigned char 
  2693 ;;  product         1    2[COMMON] unsigned char 
  2694 ;; Return value:  Size  Location     Type
  2695 ;;                  1    wreg      unsigned char 
  2696 ;; Registers used:
  2697 ;;		wreg, status,2, status,0
  2698 ;; Tracked objects:
  2699 ;;		On entry : 0/0
  2700 ;;		On exit  : 0/0
  2701 ;;		Unchanged: 0/0
  2702 ;; Data sizes:     COMMON   BANK0   BANK1   BANK2   BANK3   BANK4   BANK5   BANK6   BANK7   BANK8   BANK9  BANK10  BANK1
      +1  BANK12  BANK13  BANK14  BANK15  BANK16  BANK17  BANK18  BANK19  BANK20  BANK21  BANK22  BANK23  BANK24  BANK25  BANK2
      +6  BANK27  BANK28  BANK29  BANK30  BANK31  BANK32  BANK33  BANK34  BANK35  BANK36  BANK37  BANK38  BANK39  BANK40  BANK4
      +1  BANK42  BANK43  BANK44  BANK45  BANK46  BANK47  BANK48  BANK49  BANK50
  2703 ;;      Params:         1       0       0       0       0       0       0       0       0       0       0       0       
      +0       0       0       0       0       0       0       0       0       0       0       0       0       0       0       
      +0       0       0       0       0       0       0       0       0       0       0       0       0       0       0       
      +0       0       0       0       0       0       0       0       0       0
  2704 ;;      Locals:         2       0       0       0       0       0       0       0       0       0       0       0       
      +0       0       0       0       0       0       0       0       0       0       0       0       0       0       0       
      +0       0       0       0       0       0       0       0       0       0       0       0       0       0       0       
      +0       0       0       0       0       0       0       0       0       0
  2705 ;;      Temps:          1       0       0       0       0       0       0       0       0       0       0       0       
      +0       0       0       0       0       0       0       0       0       0       0       0       0       0       0       
      +0       0       0       0       0       0       0       0       0       0       0       0       0       0       0       
      +0       0       0       0       0       0       0       0       0       0
  2706 ;;      Totals:         4       0       0       0       0       0       0       0       0       0       0       0       
      +0       0       0       0       0       0       0       0       0       0       0       0       0       0       0       
      +0       0       0       0       0       0       0       0       0       0       0       0       0       0       0       
      +0       0       0       0       0       0       0       0       0       0
  2707 ;;Total ram usage:        4 bytes
  2708 ;; Hardware stack levels used: 1
  2709 ;; This function calls:
  2710 ;;		Nothing
  2711 ;; This function is called by:
  2712 ;;		_dpsw_to_dc
  2713 ;; This function uses a non-reentrant model
  2714 ;;
  2715                           
  2716                           
  2717                           ;psect for function ___bmul
  2718  0491                     ___bmul:
  2719                           
  2720                           ;incstack = 0
  2721                           ; Regs used in ___bmul: [wreg+status,2+status,0]
  2722                           ;___bmul@multiplier stored from wreg
  2723  0491  00F3               	movwf	___bmul@multiplier
  2724  0492                     l1079:
  2725  0492  01F2               	clrf	___bmul@product
  2726  0493                     l1081:
  2727  0493  1C73               	btfss	___bmul@multiplier,0
  2728  0494  2C96               	goto	u501
  2729  0495  2C97               	goto	u500
  2730  0496                     u501:
  2731  0496  2C9B               	goto	l1085
  2732  0497                     u500:
  2733  0497                     l1083:
  2734  0497  0870               	movf	___bmul@multiplicand,w
  2735  0498  00F1               	movwf	??___bmul
  2736  0499  0871               	movf	??___bmul,w
  2737  049A  07F2               	addwf	___bmul@product,f
  2738  049B                     l1085:
  2739  049B  1003               	clrc
  2740  049C  0DF0               	rlf	___bmul@multiplicand,f
  2741  049D                     l1087:
  2742  049D  1003               	clrc
  2743  049E  0CF3               	rrf	___bmul@multiplier,f
  2744  049F  0873               	movf	___bmul@multiplier,w
  2745  04A0  1D03               	btfss	3,2
  2746  04A1  2CA3               	goto	u511
  2747  04A2  2CA4               	goto	u510
  2748  04A3                     u511:
  2749  04A3  2C93               	goto	l1081
  2750  04A4                     u510:
  2751  04A4                     l1089:
  2752  04A4  0872               	movf	___bmul@product,w
  2753  04A5                     l329:
  2754  04A5  0008               	return
  2755  04A6                     __end_of___bmul:
  2756                           
  2757                           	psect	text8
  2758  0560                     __ptext8:	
  2759 ;; *************** function ___awmod *****************
  2760 ;; Defined at:
  2761 ;;		line 5 in file "C:\Program Files\Microchip\xc8\v2.32\pic\sources\c99\common\awmod.c"
  2762 ;; Parameters:    Size  Location     Type
  2763 ;;  divisor         2    0[COMMON] int 
  2764 ;;  dividend        2    2[COMMON] int 
  2765 ;; Auto vars:     Size  Location     Type
  2766 ;;  sign            1    6[COMMON] unsigned char 
  2767 ;;  counter         1    5[COMMON] unsigned char 
  2768 ;; Return value:  Size  Location     Type
  2769 ;;                  2    0[COMMON] int 
  2770 ;; Registers used:
  2771 ;;		wreg, status,2, status,0
  2772 ;; Tracked objects:
  2773 ;;		On entry : 0/0
  2774 ;;		On exit  : 0/0
  2775 ;;		Unchanged: 0/0
  2776 ;; Data sizes:     COMMON   BANK0   BANK1   BANK2   BANK3   BANK4   BANK5   BANK6   BANK7   BANK8   BANK9  BANK10  BANK1
      +1  BANK12  BANK13  BANK14  BANK15  BANK16  BANK17  BANK18  BANK19  BANK20  BANK21  BANK22  BANK23  BANK24  BANK25  BANK2
      +6  BANK27  BANK28  BANK29  BANK30  BANK31  BANK32  BANK33  BANK34  BANK35  BANK36  BANK37  BANK38  BANK39  BANK40  BANK4
      +1  BANK42  BANK43  BANK44  BANK45  BANK46  BANK47  BANK48  BANK49  BANK50
  2777 ;;      Params:         4       0       0       0       0       0       0       0       0       0       0       0       
      +0       0       0       0       0       0       0       0       0       0       0       0       0       0       0       
      +0       0       0       0       0       0       0       0       0       0       0       0       0       0       0       
      +0       0       0       0       0       0       0       0       0       0
  2778 ;;      Locals:         2       0       0       0       0       0       0       0       0       0       0       0       
      +0       0       0       0       0       0       0       0       0       0       0       0       0       0       0       
      +0       0       0       0       0       0       0       0       0       0       0       0       0       0       0       
      +0       0       0       0       0       0       0       0       0       0
  2779 ;;      Temps:          1       0       0       0       0       0       0       0       0       0       0       0       
      +0       0       0       0       0       0       0       0       0       0       0       0       0       0       0       
      +0       0       0       0       0       0       0       0       0       0       0       0       0       0       0       
      +0       0       0       0       0       0       0       0       0       0
  2780 ;;      Totals:         7       0       0       0       0       0       0       0       0       0       0       0       
      +0       0       0       0       0       0       0       0       0       0       0       0       0       0       0       
      +0       0       0       0       0       0       0       0       0       0       0       0       0       0       0       
      +0       0       0       0       0       0       0       0       0       0
  2781 ;;Total ram usage:        7 bytes
  2782 ;; Hardware stack levels used: 1
  2783 ;; This function calls:
  2784 ;;		Nothing
  2785 ;; This function is called by:
  2786 ;;		_itoa
  2787 ;;		_dpsw_to_dc
  2788 ;; This function uses a non-reentrant model
  2789 ;;
  2790                           
  2791                           
  2792                           ;psect for function ___awmod
  2793  0560                     ___awmod:
  2794  0560                     l1137:	
  2795                           ;incstack = 0
  2796                           ; Regs used in ___awmod: [wreg+status,2+status,0]
  2797                           
  2798  0560  01F6               	clrf	___awmod@sign
  2799  0561                     l1139:
  2800  0561  1FF3               	btfss	___awmod@dividend+1,7
  2801  0562  2D64               	goto	u621
  2802  0563  2D65               	goto	u620
  2803  0564                     u621:
  2804  0564  2D6C               	goto	l1145
  2805  0565                     u620:
  2806  0565                     l1141:
  2807  0565  09F2               	comf	___awmod@dividend,f
  2808  0566  09F3               	comf	___awmod@dividend+1,f
  2809  0567  0AF2               	incf	___awmod@dividend,f
  2810  0568  1903               	skipnz
  2811  0569  0AF3               	incf	___awmod@dividend+1,f
  2812  056A                     l1143:
  2813  056A  01F6               	clrf	___awmod@sign
  2814  056B  0AF6               	incf	___awmod@sign,f
  2815  056C                     l1145:
  2816  056C  1FF1               	btfss	___awmod@divisor+1,7
  2817  056D  2D6F               	goto	u631
  2818  056E  2D70               	goto	u630
  2819  056F                     u631:
  2820  056F  2D75               	goto	l1149
  2821  0570                     u630:
  2822  0570                     l1147:
  2823  0570  09F0               	comf	___awmod@divisor,f
  2824  0571  09F1               	comf	___awmod@divisor+1,f
  2825  0572  0AF0               	incf	___awmod@divisor,f
  2826  0573  1903               	skipnz
  2827  0574  0AF1               	incf	___awmod@divisor+1,f
  2828  0575                     l1149:
  2829  0575  0870               	movf	___awmod@divisor,w
  2830  0576  0471               	iorwf	___awmod@divisor+1,w
  2831  0577  1903               	btfsc	3,2
  2832  0578  2D7A               	goto	u641
  2833  0579  2D7B               	goto	u640
  2834  057A                     u641:
  2835  057A  2DA4               	goto	l1167
  2836  057B                     u640:
  2837  057B                     l1151:
  2838  057B  01F5               	clrf	___awmod@counter
  2839  057C  0AF5               	incf	___awmod@counter,f
  2840  057D  2D87               	goto	l1157
  2841  057E                     l1153:
  2842  057E  3001               	movlw	1
  2843  057F                     u655:
  2844  057F  35F0               	lslf	___awmod@divisor,f
  2845  0580  0DF1               	rlf	___awmod@divisor+1,f
  2846  0581  0B89               	decfsz	9,f
  2847  0582  2D7F               	goto	u655
  2848  0583                     l1155:
  2849  0583  3001               	movlw	1
  2850  0584  00F4               	movwf	??___awmod
  2851  0585  0874               	movf	??___awmod,w
  2852  0586  07F5               	addwf	___awmod@counter,f
  2853  0587                     l1157:
  2854  0587  1FF1               	btfss	___awmod@divisor+1,7
  2855  0588  2D8A               	goto	u661
  2856  0589  2D8B               	goto	u660
  2857  058A                     u661:
  2858  058A  2D7E               	goto	l1153
  2859  058B                     u660:
  2860  058B                     l1159:
  2861  058B  0871               	movf	___awmod@divisor+1,w
  2862  058C  0273               	subwf	___awmod@dividend+1,w
  2863  058D  1D03               	skipz
  2864  058E  2D91               	goto	u675
  2865  058F  0870               	movf	___awmod@divisor,w
  2866  0590  0272               	subwf	___awmod@dividend,w
  2867  0591                     u675:
  2868  0591  1C03               	skipc
  2869  0592  2D94               	goto	u671
  2870  0593  2D95               	goto	u670
  2871  0594                     u671:
  2872  0594  2D99               	goto	l1163
  2873  0595                     u670:
  2874  0595                     l1161:
  2875  0595  0870               	movf	___awmod@divisor,w
  2876  0596  02F2               	subwf	___awmod@dividend,f
  2877  0597  0871               	movf	___awmod@divisor+1,w
  2878  0598  3BF3               	subwfb	___awmod@dividend+1,f
  2879  0599                     l1163:
  2880  0599  3001               	movlw	1
  2881  059A                     u685:
  2882  059A  36F1               	lsrf	___awmod@divisor+1,f
  2883  059B  0CF0               	rrf	___awmod@divisor,f
  2884  059C  0B89               	decfsz	9,f
  2885  059D  2D9A               	goto	u685
  2886  059E                     l1165:
  2887  059E  3001               	movlw	1
  2888  059F  02F5               	subwf	___awmod@counter,f
  2889  05A0  1D03               	btfss	3,2
  2890  05A1  2DA3               	goto	u691
  2891  05A2  2DA4               	goto	u690
  2892  05A3                     u691:
  2893  05A3  2D8B               	goto	l1159
  2894  05A4                     u690:
  2895  05A4                     l1167:
  2896  05A4  0876               	movf	___awmod@sign,w
  2897  05A5  1903               	btfsc	3,2
  2898  05A6  2DA8               	goto	u701
  2899  05A7  2DA9               	goto	u700
  2900  05A8                     u701:
  2901  05A8  2DAE               	goto	l1171
  2902  05A9                     u700:
  2903  05A9                     l1169:
  2904  05A9  09F2               	comf	___awmod@dividend,f
  2905  05AA  09F3               	comf	___awmod@dividend+1,f
  2906  05AB  0AF2               	incf	___awmod@dividend,f
  2907  05AC  1903               	skipnz
  2908  05AD  0AF3               	incf	___awmod@dividend+1,f
  2909  05AE                     l1171:
  2910  05AE  0873               	movf	___awmod@dividend+1,w
  2911  05AF  00F1               	movwf	?___awmod+1
  2912  05B0  0872               	movf	___awmod@dividend,w
  2913  05B1  00F0               	movwf	?___awmod
  2914  05B2                     l469:
  2915  05B2  0008               	return
  2916  05B3                     __end_of___awmod:
  2917                           
  2918                           	psect	text9
  2919  0608                     __ptext9:	
  2920 ;; *************** function ___awdiv *****************
  2921 ;; Defined at:
  2922 ;;		line 5 in file "C:\Program Files\Microchip\xc8\v2.32\pic\sources\c99\common\awdiv.c"
  2923 ;; Parameters:    Size  Location     Type
  2924 ;;  divisor         2    6[COMMON] int 
  2925 ;;  dividend        2    8[COMMON] int 
  2926 ;; Auto vars:     Size  Location     Type
  2927 ;;  quotient        2    2[BANK0 ] int 
  2928 ;;  sign            1    1[BANK0 ] unsigned char 
  2929 ;;  counter         1    0[BANK0 ] unsigned char 
  2930 ;; Return value:  Size  Location     Type
  2931 ;;                  2    6[COMMON] int 
  2932 ;; Registers used:
  2933 ;;		wreg, status,2, status,0
  2934 ;; Tracked objects:
  2935 ;;		On entry : 0/0
  2936 ;;		On exit  : 0/0
  2937 ;;		Unchanged: 0/0
  2938 ;; Data sizes:     COMMON   BANK0   BANK1   BANK2   BANK3   BANK4   BANK5   BANK6   BANK7   BANK8   BANK9  BANK10  BANK1
      +1  BANK12  BANK13  BANK14  BANK15  BANK16  BANK17  BANK18  BANK19  BANK20  BANK21  BANK22  BANK23  BANK24  BANK25  BANK2
      +6  BANK27  BANK28  BANK29  BANK30  BANK31  BANK32  BANK33  BANK34  BANK35  BANK36  BANK37  BANK38  BANK39  BANK40  BANK4
      +1  BANK42  BANK43  BANK44  BANK45  BANK46  BANK47  BANK48  BANK49  BANK50
  2939 ;;      Params:         4       0       0       0       0       0       0       0       0       0       0       0       
      +0       0       0       0       0       0       0       0       0       0       0       0       0       0       0       
      +0       0       0       0       0       0       0       0       0       0       0       0       0       0       0       
      +0       0       0       0       0       0       0       0       0       0
  2940 ;;      Locals:         0       4       0       0       0       0       0       0       0       0       0       0       
      +0       0       0       0       0       0       0       0       0       0       0       0       0       0       0       
      +0       0       0       0       0       0       0       0       0       0       0       0       0       0       0       
      +0       0       0       0       0       0       0       0       0       0
  2941 ;;      Temps:          1       0       0       0       0       0       0       0       0       0       0       0       
      +0       0       0       0       0       0       0       0       0       0       0       0       0       0       0       
      +0       0       0       0       0       0       0       0       0       0       0       0       0       0       0       
      +0       0       0       0       0       0       0       0       0       0
  2942 ;;      Totals:         5       4       0       0       0       0       0       0       0       0       0       0       
      +0       0       0       0       0       0       0       0       0       0       0       0       0       0       0       
      +0       0       0       0       0       0       0       0       0       0       0       0       0       0       0       
      +0       0       0       0       0       0       0       0       0       0
  2943 ;;Total ram usage:        9 bytes
  2944 ;; Hardware stack levels used: 1
  2945 ;; This function calls:
  2946 ;;		Nothing
  2947 ;; This function is called by:
  2948 ;;		_itoa
  2949 ;;		_dpsw_to_dc
  2950 ;;		_main
  2951 ;; This function uses a non-reentrant model
  2952 ;;
  2953                           
  2954                           
  2955                           ;psect for function ___awdiv
  2956  0608                     ___awdiv:
  2957  0608                     l1093:	
  2958                           ;incstack = 0
  2959                           ; Regs used in ___awdiv: [wreg+status,2+status,0]
  2960                           
  2961  0608  0140               	movlb	0	; select bank0
  2962  0609  01A1               	clrf	___awdiv@sign
  2963  060A                     l1095:
  2964  060A  1FF7               	btfss	___awdiv@divisor+1,7
  2965  060B  2E0D               	goto	u521
  2966  060C  2E0E               	goto	u520
  2967  060D                     u521:
  2968  060D  2E15               	goto	l1101
  2969  060E                     u520:
  2970  060E                     l1097:
  2971  060E  09F6               	comf	___awdiv@divisor,f
  2972  060F  09F7               	comf	___awdiv@divisor+1,f
  2973  0610  0AF6               	incf	___awdiv@divisor,f
  2974  0611  1903               	skipnz
  2975  0612  0AF7               	incf	___awdiv@divisor+1,f
  2976  0613                     l1099:
  2977  0613  01A1               	clrf	___awdiv@sign
  2978  0614  0AA1               	incf	___awdiv@sign,f
  2979  0615                     l1101:
  2980  0615  1FF9               	btfss	___awdiv@dividend+1,7
  2981  0616  2E18               	goto	u531
  2982  0617  2E19               	goto	u530
  2983  0618                     u531:
  2984  0618  2E22               	goto	l1107
  2985  0619                     u530:
  2986  0619                     l1103:
  2987  0619  09F8               	comf	___awdiv@dividend,f
  2988  061A  09F9               	comf	___awdiv@dividend+1,f
  2989  061B  0AF8               	incf	___awdiv@dividend,f
  2990  061C  1903               	skipnz
  2991  061D  0AF9               	incf	___awdiv@dividend+1,f
  2992  061E                     l1105:
  2993  061E  3001               	movlw	1
  2994  061F  00FA               	movwf	??___awdiv
  2995  0620  087A               	movf	??___awdiv,w
  2996  0621  06A1               	xorwf	___awdiv@sign,f
  2997  0622                     l1107:
  2998  0622  01A2               	clrf	___awdiv@quotient
  2999  0623  01A3               	clrf	___awdiv@quotient+1
  3000  0624                     l1109:
  3001  0624  0876               	movf	___awdiv@divisor,w
  3002  0625  0477               	iorwf	___awdiv@divisor+1,w
  3003  0626  1903               	btfsc	3,2
  3004  0627  2E29               	goto	u541
  3005  0628  2E2A               	goto	u540
  3006  0629                     u541:
  3007  0629  2E59               	goto	l1129
  3008  062A                     u540:
  3009  062A                     l1111:
  3010  062A  01A0               	clrf	___awdiv@counter
  3011  062B  0AA0               	incf	___awdiv@counter,f
  3012  062C  2E36               	goto	l1117
  3013  062D                     l1113:
  3014  062D  3001               	movlw	1
  3015  062E                     u555:
  3016  062E  35F6               	lslf	___awdiv@divisor,f
  3017  062F  0DF7               	rlf	___awdiv@divisor+1,f
  3018  0630  0B89               	decfsz	9,f
  3019  0631  2E2E               	goto	u555
  3020  0632                     l1115:
  3021  0632  3001               	movlw	1
  3022  0633  00FA               	movwf	??___awdiv
  3023  0634  087A               	movf	??___awdiv,w
  3024  0635  07A0               	addwf	___awdiv@counter,f
  3025  0636                     l1117:
  3026  0636  1FF7               	btfss	___awdiv@divisor+1,7
  3027  0637  2E39               	goto	u561
  3028  0638  2E3A               	goto	u560
  3029  0639                     u561:
  3030  0639  2E2D               	goto	l1113
  3031  063A                     u560:
  3032  063A                     l1119:
  3033  063A  3001               	movlw	1
  3034  063B                     u575:
  3035  063B  35A2               	lslf	___awdiv@quotient,f
  3036  063C  0DA3               	rlf	___awdiv@quotient+1,f
  3037  063D  0B89               	decfsz	9,f
  3038  063E  2E3B               	goto	u575
  3039  063F  0877               	movf	___awdiv@divisor+1,w
  3040  0640  0279               	subwf	___awdiv@dividend+1,w
  3041  0641  1D03               	skipz
  3042  0642  2E45               	goto	u585
  3043  0643  0876               	movf	___awdiv@divisor,w
  3044  0644  0278               	subwf	___awdiv@dividend,w
  3045  0645                     u585:
  3046  0645  1C03               	skipc
  3047  0646  2E48               	goto	u581
  3048  0647  2E49               	goto	u580
  3049  0648                     u581:
  3050  0648  2E4E               	goto	l1125
  3051  0649                     u580:
  3052  0649                     l1121:
  3053  0649  0876               	movf	___awdiv@divisor,w
  3054  064A  02F8               	subwf	___awdiv@dividend,f
  3055  064B  0877               	movf	___awdiv@divisor+1,w
  3056  064C  3BF9               	subwfb	___awdiv@dividend+1,f
  3057  064D                     l1123:
  3058  064D  1422               	bsf	___awdiv@quotient,0
  3059  064E                     l1125:
  3060  064E  3001               	movlw	1
  3061  064F                     u595:
  3062  064F  36F7               	lsrf	___awdiv@divisor+1,f
  3063  0650  0CF6               	rrf	___awdiv@divisor,f
  3064  0651  0B89               	decfsz	9,f
  3065  0652  2E4F               	goto	u595
  3066  0653                     l1127:
  3067  0653  3001               	movlw	1
  3068  0654  02A0               	subwf	___awdiv@counter,f
  3069  0655  1D03               	btfss	3,2
  3070  0656  2E58               	goto	u601
  3071  0657  2E59               	goto	u600
  3072  0658                     u601:
  3073  0658  2E3A               	goto	l1119
  3074  0659                     u600:
  3075  0659                     l1129:
  3076  0659  0821               	movf	___awdiv@sign,w
  3077  065A  1903               	btfsc	3,2
  3078  065B  2E5D               	goto	u611
  3079  065C  2E5E               	goto	u610
  3080  065D                     u611:
  3081  065D  2E63               	goto	l1133
  3082  065E                     u610:
  3083  065E                     l1131:
  3084  065E  09A2               	comf	___awdiv@quotient,f
  3085  065F  09A3               	comf	___awdiv@quotient+1,f
  3086  0660  0AA2               	incf	___awdiv@quotient,f
  3087  0661  1903               	skipnz
  3088  0662  0AA3               	incf	___awdiv@quotient+1,f
  3089  0663                     l1133:
  3090  0663  0823               	movf	___awdiv@quotient+1,w
  3091  0664  00F7               	movwf	?___awdiv+1
  3092  0665  0822               	movf	___awdiv@quotient,w
  3093  0666  00F6               	movwf	?___awdiv
  3094  0667                     l456:
  3095  0667  0008               	return
  3096  0668                     __end_of___awdiv:
  3097                           
  3098                           	psect	text10
  3099  050D                     __ptext10:	
  3100 ;; *************** function _cfg_pwm *****************
  3101 ;; Defined at:
  3102 ;;		line 90 in file "C:/Users/rocke/Desktop/PIC16-PTS/main.c"
  3103 ;; Parameters:    Size  Location     Type
  3104 ;;		None
  3105 ;; Auto vars:     Size  Location     Type
  3106 ;;		None
  3107 ;; Return value:  Size  Location     Type
  3108 ;;                  1    wreg      void 
  3109 ;; Registers used:
  3110 ;;		wreg
  3111 ;; Tracked objects:
  3112 ;;		On entry : 0/0
  3113 ;;		On exit  : 0/0
  3114 ;;		Unchanged: 0/0
  3115 ;; Data sizes:     COMMON   BANK0   BANK1   BANK2   BANK3   BANK4   BANK5   BANK6   BANK7   BANK8   BANK9  BANK10  BANK1
      +1  BANK12  BANK13  BANK14  BANK15  BANK16  BANK17  BANK18  BANK19  BANK20  BANK21  BANK22  BANK23  BANK24  BANK25  BANK2
      +6  BANK27  BANK28  BANK29  BANK30  BANK31  BANK32  BANK33  BANK34  BANK35  BANK36  BANK37  BANK38  BANK39  BANK40  BANK4
      +1  BANK42  BANK43  BANK44  BANK45  BANK46  BANK47  BANK48  BANK49  BANK50
  3116 ;;      Params:         0       0       0       0       0       0       0       0       0       0       0       0       
      +0       0       0       0       0       0       0       0       0       0       0       0       0       0       0       
      +0       0       0       0       0       0       0       0       0       0       0       0       0       0       0       
      +0       0       0       0       0       0       0       0       0       0
  3117 ;;      Locals:         0       0       0       0       0       0       0       0       0       0       0       0       
      +0       0       0       0       0       0       0       0       0       0       0       0       0       0       0       
      +0       0       0       0       0       0       0       0       0       0       0       0       0       0       0       
      +0       0       0       0       0       0       0       0       0       0
  3118 ;;      Temps:          0       0       0       0       0       0       0       0       0       0       0       0       
      +0       0       0       0       0       0       0       0       0       0       0       0       0       0       0       
      +0       0       0       0       0       0       0       0       0       0       0       0       0       0       0       
      +0       0       0       0       0       0       0       0       0       0
  3119 ;;      Totals:         0       0       0       0       0       0       0       0       0       0       0       0       
      +0       0       0       0       0       0       0       0       0       0       0       0       0       0       0       
      +0       0       0       0       0       0       0       0       0       0       0       0       0       0       0       
      +0       0       0       0       0       0       0       0       0       0
  3120 ;;Total ram usage:        0 bytes
  3121 ;; Hardware stack levels used: 1
  3122 ;; This function calls:
  3123 ;;		Nothing
  3124 ;; This function is called by:
  3125 ;;		_main
  3126 ;; This function uses a non-reentrant model
  3127 ;;
  3128                           
  3129                           
  3130                           ;psect for function _cfg_pwm
  3131  050D                     _cfg_pwm:
  3132  050D                     l1195:	
  3133                           ;incstack = 0
  3134                           ; Regs used in _cfg_pwm: [wreg]
  3135                           
  3136                           
  3137                           ;C:/Users/rocke/Desktop/PIC16-PTS/main.c: 92:     TRISAbits.TRISA0 = 1;
  3138  050D  0140               	movlb	0	; select bank0
  3139  050E  1411               	bsf	17,0	;volatile
  3140                           
  3141                           ;C:/Users/rocke/Desktop/PIC16-PTS/main.c: 93:     TRISAbits.TRISA1 = 1;
  3142  050F  1491               	bsf	17,1	;volatile
  3143                           
  3144                           ;C:/Users/rocke/Desktop/PIC16-PTS/main.c: 94:     TRISAbits.TRISA2 = 1;
  3145  0510  1511               	bsf	17,2	;volatile
  3146                           
  3147                           ;C:/Users/rocke/Desktop/PIC16-PTS/main.c: 95:     TRISAbits.TRISA3 = 1;
  3148  0511  1591               	bsf	17,3	;volatile
  3149                           
  3150                           ;C:/Users/rocke/Desktop/PIC16-PTS/main.c: 97:     ANSELAbits.ANSA0 = 0;
  3151  0512  017E               	movlb	62	; select bank62
  3152  0513  1038               	bcf	56,0	;volatile
  3153                           
  3154                           ;C:/Users/rocke/Desktop/PIC16-PTS/main.c: 98:     ANSELAbits.ANSA1 = 0;
  3155  0514  10B8               	bcf	56,1	;volatile
  3156                           
  3157                           ;C:/Users/rocke/Desktop/PIC16-PTS/main.c: 99:     ANSELAbits.ANSA2 = 0;
  3158  0515  1138               	bcf	56,2	;volatile
  3159                           
  3160                           ;C:/Users/rocke/Desktop/PIC16-PTS/main.c: 100:     ANSELAbits.ANSA3 = 0;
  3161  0516  11B8               	bcf	56,3	;volatile
  3162                           
  3163                           ;C:/Users/rocke/Desktop/PIC16-PTS/main.c: 102:     TRISBbits.TRISB5 = 0;
  3164  0517  0140               	movlb	0	; select bank0
  3165  0518  1292               	bcf	18,5	;volatile
  3166                           
  3167                           ;C:/Users/rocke/Desktop/PIC16-PTS/main.c: 103:     ANSELBbits.ANSB5 = 0;
  3168  0519  017E               	movlb	62	; select bank62
  3169  051A  12C3               	bcf	67,5	;volatile
  3170  051B                     l1197:
  3171                           
  3172                           ;C:/Users/rocke/Desktop/PIC16-PTS/main.c: 104:     RB5PPS = 0x0A;
  3173  051B  300A               	movlw	10
  3174  051C  009D               	movwf	29	;volatile
  3175                           
  3176                           ;C:/Users/rocke/Desktop/PIC16-PTS/main.c: 105:     CCP2CON = 0x9F;
  3177  051D  309F               	movlw	159
  3178  051E  0146               	movlb	6	; select bank6
  3179  051F  0092               	movwf	18	;volatile
  3180                           
  3181                           ;C:/Users/rocke/Desktop/PIC16-PTS/main.c: 106:     CCPTMRS0 = 0x05;
  3182  0520  3005               	movlw	5
  3183  0521  0144               	movlb	4	; select bank4
  3184  0522  009E               	movwf	30	;volatile
  3185                           
  3186                           ;C:/Users/rocke/Desktop/PIC16-PTS/main.c: 107:     PR2 = 19;
  3187  0523  3013               	movlw	19
  3188  0524  0145               	movlb	5	; select bank5
  3189  0525  008D               	movwf	13	;volatile
  3190                           
  3191                           ;C:/Users/rocke/Desktop/PIC16-PTS/main.c: 108:     CCPR2L = 0xFF;
  3192  0526  30FF               	movlw	255
  3193  0527  0146               	movlb	6	; select bank6
  3194  0528  0090               	movwf	16	;volatile
  3195                           
  3196                           ;C:/Users/rocke/Desktop/PIC16-PTS/main.c: 109:     CCPR2H = 0xFF;
  3197  0529  30FF               	movlw	255
  3198  052A  0091               	movwf	17	;volatile
  3199                           
  3200                           ;C:/Users/rocke/Desktop/PIC16-PTS/main.c: 110:     T2CLKCON = 0x01;
  3201  052B  3001               	movlw	1
  3202  052C  0145               	movlb	5	; select bank5
  3203  052D  0090               	movwf	16	;volatile
  3204                           
  3205                           ;C:/Users/rocke/Desktop/PIC16-PTS/main.c: 111:     T2CON = 0xF0;
  3206  052E  30F0               	movlw	240
  3207  052F  008E               	movwf	14	;volatile
  3208  0530                     l78:
  3209  0530  0008               	return
  3210  0531                     __end_of_cfg_pwm:
  3211                           
  3212                           	psect	text11
  3213  0480                     __ptext11:	
  3214 ;; *************** function _cfg_eusart *****************
  3215 ;; Defined at:
  3216 ;;		line 69 in file "C:/Users/rocke/Desktop/PIC16-PTS/main.c"
  3217 ;; Parameters:    Size  Location     Type
  3218 ;;		None
  3219 ;; Auto vars:     Size  Location     Type
  3220 ;;		None
  3221 ;; Return value:  Size  Location     Type
  3222 ;;                  1    wreg      void 
  3223 ;; Registers used:
  3224 ;;		wreg, status,2
  3225 ;; Tracked objects:
  3226 ;;		On entry : 0/0
  3227 ;;		On exit  : 0/0
  3228 ;;		Unchanged: 0/0
  3229 ;; Data sizes:     COMMON   BANK0   BANK1   BANK2   BANK3   BANK4   BANK5   BANK6   BANK7   BANK8   BANK9  BANK10  BANK1
      +1  BANK12  BANK13  BANK14  BANK15  BANK16  BANK17  BANK18  BANK19  BANK20  BANK21  BANK22  BANK23  BANK24  BANK25  BANK2
      +6  BANK27  BANK28  BANK29  BANK30  BANK31  BANK32  BANK33  BANK34  BANK35  BANK36  BANK37  BANK38  BANK39  BANK40  BANK4
      +1  BANK42  BANK43  BANK44  BANK45  BANK46  BANK47  BANK48  BANK49  BANK50
  3230 ;;      Params:         0       0       0       0       0       0       0       0       0       0       0       0       
      +0       0       0       0       0       0       0       0       0       0       0       0       0       0       0       
      +0       0       0       0       0       0       0       0       0       0       0       0       0       0       0       
      +0       0       0       0       0       0       0       0       0       0
  3231 ;;      Locals:         0       0       0       0       0       0       0       0       0       0       0       0       
      +0       0       0       0       0       0       0       0       0       0       0       0       0       0       0       
      +0       0       0       0       0       0       0       0       0       0       0       0       0       0       0       
      +0       0       0       0       0       0       0       0       0       0
  3232 ;;      Temps:          0       0       0       0       0       0       0       0       0       0       0       0       
      +0       0       0       0       0       0       0       0       0       0       0       0       0       0       0       
      +0       0       0       0       0       0       0       0       0       0       0       0       0       0       0       
      +0       0       0       0       0       0       0       0       0       0
  3233 ;;      Totals:         0       0       0       0       0       0       0       0       0       0       0       0       
      +0       0       0       0       0       0       0       0       0       0       0       0       0       0       0       
      +0       0       0       0       0       0       0       0       0       0       0       0       0       0       0       
      +0       0       0       0       0       0       0       0       0       0
  3234 ;;Total ram usage:        0 bytes
  3235 ;; Hardware stack levels used: 1
  3236 ;; This function calls:
  3237 ;;		Nothing
  3238 ;; This function is called by:
  3239 ;;		_main
  3240 ;; This function uses a non-reentrant model
  3241 ;;
  3242                           
  3243                           
  3244                           ;psect for function _cfg_eusart
  3245  0480                     _cfg_eusart:
  3246  0480                     l1175:	
  3247                           ;incstack = 0
  3248                           ; Regs used in _cfg_eusart: [wreg+status,2]
  3249                           
  3250                           
  3251                           ;C:/Users/rocke/Desktop/PIC16-PTS/main.c: 71:     TRISCbits.TRISC6 = 0;
  3252  0480  0140               	movlb	0	; select bank0
  3253  0481  1313               	bcf	19,6	;volatile
  3254                           
  3255                           ;C:/Users/rocke/Desktop/PIC16-PTS/main.c: 72:     ANSELCbits.ANSC6 = 0;
  3256  0482  017E               	movlb	62	; select bank62
  3257  0483  134E               	bcf	78,6	;volatile
  3258  0484                     l1177:
  3259                           
  3260                           ;C:/Users/rocke/Desktop/PIC16-PTS/main.c: 73:     RC6PPS = 0x10;
  3261  0484  3010               	movlw	16
  3262  0485  00A6               	movwf	38	;volatile
  3263  0486                     l1179:
  3264                           
  3265                           ;C:/Users/rocke/Desktop/PIC16-PTS/main.c: 75:     SP1BRGH = 0x00;
  3266  0486  0142               	movlb	2	; select bank2
  3267  0487  019C               	clrf	28	;volatile
  3268  0488                     l1181:
  3269                           
  3270                           ;C:/Users/rocke/Desktop/PIC16-PTS/main.c: 76:     SP1BRGL = 0b00011001;
  3271  0488  3019               	movlw	25
  3272  0489  009B               	movwf	27	;volatile
  3273  048A                     l1183:
  3274                           
  3275                           ;C:/Users/rocke/Desktop/PIC16-PTS/main.c: 77:     BAUD1CONbits.BRG16 = 0;
  3276  048A  119F               	bcf	31,3	;volatile
  3277  048B                     l1185:
  3278                           
  3279                           ;C:/Users/rocke/Desktop/PIC16-PTS/main.c: 79:     TX1STAbits.BRGH = 0;
  3280  048B  111E               	bcf	30,2	;volatile
  3281  048C                     l1187:
  3282                           
  3283                           ;C:/Users/rocke/Desktop/PIC16-PTS/main.c: 80:     TX1STAbits.SYNC = 0;
  3284  048C  121E               	bcf	30,4	;volatile
  3285  048D                     l1189:
  3286                           
  3287                           ;C:/Users/rocke/Desktop/PIC16-PTS/main.c: 82:     RC1STAbits.SPEN = 1;
  3288  048D  179D               	bsf	29,7	;volatile
  3289  048E                     l1191:
  3290                           
  3291                           ;C:/Users/rocke/Desktop/PIC16-PTS/main.c: 84:     TX1STAbits.TXEN = 1;
  3292  048E  169E               	bsf	30,5	;volatile
  3293  048F                     l1193:
  3294                           
  3295                           ;C:/Users/rocke/Desktop/PIC16-PTS/main.c: 85:     TX1STAbits.TX9 = 0;
  3296  048F  131E               	bcf	30,6	;volatile
  3297  0490                     l75:
  3298  0490  0008               	return
  3299  0491                     __end_of_cfg_eusart:
  3300                           
  3301                           	psect	text12
  3302  0531                     __ptext12:	
  3303 ;; *************** function _calcAngle *****************
  3304 ;; Defined at:
  3305 ;;		line 162 in file "C:/Users/rocke/Desktop/PIC16-PTS/main.c"
  3306 ;; Parameters:    Size  Location     Type
  3307 ;;		None
  3308 ;; Auto vars:     Size  Location     Type
  3309 ;;  angle           2    2[COMMON] int 
  3310 ;; Return value:  Size  Location     Type
  3311 ;;                  2    0[COMMON] int 
  3312 ;; Registers used:
  3313 ;;		wreg, status,2
  3314 ;; Tracked objects:
  3315 ;;		On entry : 0/0
  3316 ;;		On exit  : 0/0
  3317 ;;		Unchanged: 0/0
  3318 ;; Data sizes:     COMMON   BANK0   BANK1   BANK2   BANK3   BANK4   BANK5   BANK6   BANK7   BANK8   BANK9  BANK10  BANK1
      +1  BANK12  BANK13  BANK14  BANK15  BANK16  BANK17  BANK18  BANK19  BANK20  BANK21  BANK22  BANK23  BANK24  BANK25  BANK2
      +6  BANK27  BANK28  BANK29  BANK30  BANK31  BANK32  BANK33  BANK34  BANK35  BANK36  BANK37  BANK38  BANK39  BANK40  BANK4
      +1  BANK42  BANK43  BANK44  BANK45  BANK46  BANK47  BANK48  BANK49  BANK50
  3319 ;;      Params:         2       0       0       0       0       0       0       0       0       0       0       0       
      +0       0       0       0       0       0       0       0       0       0       0       0       0       0       0       
      +0       0       0       0       0       0       0       0       0       0       0       0       0       0       0       
      +0       0       0       0       0       0       0       0       0       0
  3320 ;;      Locals:         2       0       0       0       0       0       0       0       0       0       0       0       
      +0       0       0       0       0       0       0       0       0       0       0       0       0       0       0       
      +0       0       0       0       0       0       0       0       0       0       0       0       0       0       0       
      +0       0       0       0       0       0       0       0       0       0
  3321 ;;      Temps:          0       0       0       0       0       0       0       0       0       0       0       0       
      +0       0       0       0       0       0       0       0       0       0       0       0       0       0       0       
      +0       0       0       0       0       0       0       0       0       0       0       0       0       0       0       
      +0       0       0       0       0       0       0       0       0       0
  3322 ;;      Totals:         4       0       0       0       0       0       0       0       0       0       0       0       
      +0       0       0       0       0       0       0       0       0       0       0       0       0       0       0       
      +0       0       0       0       0       0       0       0       0       0       0       0       0       0       0       
      +0       0       0       0       0       0       0       0       0       0
  3323 ;;Total ram usage:        4 bytes
  3324 ;; Hardware stack levels used: 1
  3325 ;; This function calls:
  3326 ;;		Nothing
  3327 ;; This function is called by:
  3328 ;;		_main
  3329 ;; This function uses a non-reentrant model
  3330 ;;
  3331                           
  3332                           
  3333                           ;psect for function _calcAngle
  3334  0531                     _calcAngle:
  3335  0531                     l1225:	
  3336                           ;incstack = 0
  3337                           ; Regs used in _calcAngle: [wreg+status,2]
  3338                           
  3339  0531                     l1227:
  3340                           
  3341                           ;C:/Users/rocke/Desktop/PIC16-PTS/main.c: 168:     if(!(RB1 == 1) && !(RB0 == 0))
  3342  0531  0140               	movlb	0	; select bank0
  3343  0532  188D               	btfsc	13,1	;volatile
  3344  0533  2D35               	goto	u721
  3345  0534  2D36               	goto	u720
  3346  0535                     u721:
  3347  0535  2D3F               	goto	l96
  3348  0536                     u720:
  3349  0536                     l1229:
  3350  0536  1C0D               	btfss	13,0	;volatile
  3351  0537  2D39               	goto	u731
  3352  0538  2D3A               	goto	u730
  3353  0539                     u731:
  3354  0539  2D3F               	goto	l96
  3355  053A                     u730:
  3356  053A                     l1231:
  3357                           
  3358                           ;C:/Users/rocke/Desktop/PIC16-PTS/main.c: 169:     {;C:/Users/rocke/Desktop/PIC16-PTS/ma
      +                          in.c: 171:         angle = 90;
  3359  053A  305A               	movlw	90
  3360  053B  00F2               	movwf	calcAngle@angle
  3361  053C  3000               	movlw	0
  3362  053D  00F3               	movwf	calcAngle@angle+1
  3363                           
  3364                           ;C:/Users/rocke/Desktop/PIC16-PTS/main.c: 172:     }
  3365  053E  2D5B               	goto	l1243
  3366  053F                     l96:	
  3367                           ;C:/Users/rocke/Desktop/PIC16-PTS/main.c: 173:     else if(!(RB1 == 1) && !(RB0 == 1))
  3368                           
  3369  053F  188D               	btfsc	13,1	;volatile
  3370  0540  2D42               	goto	u741
  3371  0541  2D43               	goto	u740
  3372  0542                     u741:
  3373  0542  2D4C               	goto	l98
  3374  0543                     u740:
  3375  0543                     l1233:
  3376  0543  180D               	btfsc	13,0	;volatile
  3377  0544  2D46               	goto	u751
  3378  0545  2D47               	goto	u750
  3379  0546                     u751:
  3380  0546  2D4C               	goto	l98
  3381  0547                     u750:
  3382  0547                     l1235:
  3383                           
  3384                           ;C:/Users/rocke/Desktop/PIC16-PTS/main.c: 174:     {;C:/Users/rocke/Desktop/PIC16-PTS/ma
      +                          in.c: 176:         angle = 180;
  3385  0547  30B4               	movlw	180
  3386  0548  00F2               	movwf	calcAngle@angle
  3387  0549  3000               	movlw	0
  3388  054A  00F3               	movwf	calcAngle@angle+1
  3389                           
  3390                           ;C:/Users/rocke/Desktop/PIC16-PTS/main.c: 177:     }
  3391  054B  2D5B               	goto	l1243
  3392  054C                     l98:	
  3393                           ;C:/Users/rocke/Desktop/PIC16-PTS/main.c: 178:     else if(!(RB1 == 0) && !(RB0 ==1))
  3394                           
  3395  054C  1C8D               	btfss	13,1	;volatile
  3396  054D  2D4F               	goto	u761
  3397  054E  2D50               	goto	u760
  3398  054F                     u761:
  3399  054F  2D59               	goto	l1241
  3400  0550                     u760:
  3401  0550                     l1237:
  3402  0550  180D               	btfsc	13,0	;volatile
  3403  0551  2D53               	goto	u771
  3404  0552  2D54               	goto	u770
  3405  0553                     u771:
  3406  0553  2D59               	goto	l1241
  3407  0554                     u770:
  3408  0554                     l1239:
  3409                           
  3410                           ;C:/Users/rocke/Desktop/PIC16-PTS/main.c: 179:     {;C:/Users/rocke/Desktop/PIC16-PTS/ma
      +                          in.c: 181:         angle = 270;
  3411  0554  300E               	movlw	14
  3412  0555  00F2               	movwf	calcAngle@angle
  3413  0556  3001               	movlw	1
  3414  0557  00F3               	movwf	calcAngle@angle+1
  3415                           
  3416                           ;C:/Users/rocke/Desktop/PIC16-PTS/main.c: 182:     }
  3417  0558  2D5B               	goto	l1243
  3418  0559                     l1241:
  3419                           
  3420                           ;C:/Users/rocke/Desktop/PIC16-PTS/main.c: 184:     {;C:/Users/rocke/Desktop/PIC16-PTS/ma
      +                          in.c: 186:         angle = 0;
  3421  0559  01F2               	clrf	calcAngle@angle
  3422  055A  01F3               	clrf	calcAngle@angle+1
  3423  055B                     l1243:
  3424                           
  3425                           ;C:/Users/rocke/Desktop/PIC16-PTS/main.c: 189:     return angle;
  3426  055B  0873               	movf	calcAngle@angle+1,w
  3427  055C  00F1               	movwf	?_calcAngle+1
  3428  055D  0872               	movf	calcAngle@angle,w
  3429  055E  00F0               	movwf	?_calcAngle
  3430  055F                     l102:
  3431  055F  0008               	return
  3432  0560                     __end_of_calcAngle:
  3433                           
  3434                           	psect	text13
  3435  04EE                     __ptext13:	
  3436 ;; *************** function ___wmul *****************
  3437 ;; Defined at:
  3438 ;;		line 15 in file "C:\Program Files\Microchip\xc8\v2.32\pic\sources\c99\common\Umul16.c"
  3439 ;; Parameters:    Size  Location     Type
  3440 ;;  multiplier      2    0[COMMON] unsigned int 
  3441 ;;  multiplicand    2    2[COMMON] unsigned int 
  3442 ;; Auto vars:     Size  Location     Type
  3443 ;;  product         2    4[COMMON] unsigned int 
  3444 ;; Return value:  Size  Location     Type
  3445 ;;                  2    0[COMMON] unsigned int 
  3446 ;; Registers used:
  3447 ;;		wreg, status,2, status,0
  3448 ;; Tracked objects:
  3449 ;;		On entry : 0/0
  3450 ;;		On exit  : 0/0
  3451 ;;		Unchanged: 0/0
  3452 ;; Data sizes:     COMMON   BANK0   BANK1   BANK2   BANK3   BANK4   BANK5   BANK6   BANK7   BANK8   BANK9  BANK10  BANK1
      +1  BANK12  BANK13  BANK14  BANK15  BANK16  BANK17  BANK18  BANK19  BANK20  BANK21  BANK22  BANK23  BANK24  BANK25  BANK2
      +6  BANK27  BANK28  BANK29  BANK30  BANK31  BANK32  BANK33  BANK34  BANK35  BANK36  BANK37  BANK38  BANK39  BANK40  BANK4
      +1  BANK42  BANK43  BANK44  BANK45  BANK46  BANK47  BANK48  BANK49  BANK50
  3453 ;;      Params:         4       0       0       0       0       0       0       0       0       0       0       0       
      +0       0       0       0       0       0       0       0       0       0       0       0       0       0       0       
      +0       0       0       0       0       0       0       0       0       0       0       0       0       0       0       
      +0       0       0       0       0       0       0       0       0       0
  3454 ;;      Locals:         2       0       0       0       0       0       0       0       0       0       0       0       
      +0       0       0       0       0       0       0       0       0       0       0       0       0       0       0       
      +0       0       0       0       0       0       0       0       0       0       0       0       0       0       0       
      +0       0       0       0       0       0       0       0       0       0
  3455 ;;      Temps:          0       0       0       0       0       0       0       0       0       0       0       0       
      +0       0       0       0       0       0       0       0       0       0       0       0       0       0       0       
      +0       0       0       0       0       0       0       0       0       0       0       0       0       0       0       
      +0       0       0       0       0       0       0       0       0       0
  3456 ;;      Totals:         6       0       0       0       0       0       0       0       0       0       0       0       
      +0       0       0       0       0       0       0       0       0       0       0       0       0       0       0       
      +0       0       0       0       0       0       0       0       0       0       0       0       0       0       0       
      +0       0       0       0       0       0       0       0       0       0
  3457 ;;Total ram usage:        6 bytes
  3458 ;; Hardware stack levels used: 1
  3459 ;; This function calls:
  3460 ;;		Nothing
  3461 ;; This function is called by:
  3462 ;;		_main
  3463 ;; This function uses a non-reentrant model
  3464 ;;
  3465                           
  3466                           
  3467                           ;psect for function ___wmul
  3468  04EE                     ___wmul:
  3469  04EE                     l1323:	
  3470                           ;incstack = 0
  3471                           ; Regs used in ___wmul: [wreg+status,2+status,0]
  3472                           
  3473  04EE  01F4               	clrf	___wmul@product
  3474  04EF  01F5               	clrf	___wmul@product+1
  3475  04F0                     l1325:
  3476  04F0  1C70               	btfss	___wmul@multiplier,0
  3477  04F1  2CF3               	goto	u891
  3478  04F2  2CF4               	goto	u890
  3479  04F3                     u891:
  3480  04F3  2CF8               	goto	l303
  3481  04F4                     u890:
  3482  04F4                     l1327:
  3483  04F4  0872               	movf	___wmul@multiplicand,w
  3484  04F5  07F4               	addwf	___wmul@product,f
  3485  04F6  0873               	movf	___wmul@multiplicand+1,w
  3486  04F7  3DF5               	addwfc	___wmul@product+1,f
  3487  04F8                     l303:
  3488  04F8  3001               	movlw	1
  3489  04F9                     u905:
  3490  04F9  35F2               	lslf	___wmul@multiplicand,f
  3491  04FA  0DF3               	rlf	___wmul@multiplicand+1,f
  3492  04FB  0B89               	decfsz	9,f
  3493  04FC  2CF9               	goto	u905
  3494  04FD                     l1329:
  3495  04FD  3001               	movlw	1
  3496  04FE                     u915:
  3497  04FE  36F1               	lsrf	___wmul@multiplier+1,f
  3498  04FF  0CF0               	rrf	___wmul@multiplier,f
  3499  0500  0B89               	decfsz	9,f
  3500  0501  2CFE               	goto	u915
  3501  0502                     l1331:
  3502  0502  0870               	movf	___wmul@multiplier,w
  3503  0503  0471               	iorwf	___wmul@multiplier+1,w
  3504  0504  1D03               	btfss	3,2
  3505  0505  2D07               	goto	u921
  3506  0506  2D08               	goto	u920
  3507  0507                     u921:
  3508  0507  2CF0               	goto	l1325
  3509  0508                     u920:
  3510  0508                     l1333:
  3511  0508  0875               	movf	___wmul@product+1,w
  3512  0509  00F1               	movwf	?___wmul+1
  3513  050A  0874               	movf	___wmul@product,w
  3514  050B  00F0               	movwf	?___wmul
  3515  050C                     l305:
  3516  050C  0008               	return
  3517  050D                     __end_of___wmul:
  3518  007E                     btemp	set	126	;btemp
  3519  007E                     wtemp0	set	126
  3520                           
  3521                           	psect	config
  3522                           
  3523                           ;Config register CONFIG1 @ 0x8007
  3524                           ;	External Oscillator mode selection bits
  3525                           ;	FEXTOSC = XT, XT (crystal oscillator) above 500kHz, below 4MHz; PFM set to medium powe
      +                          r
  3526                           ;	Power-up default value for COSC bits
  3527                           ;	RSTOSC = EXT1X, EXTOSC operating per FEXTOSC bits
  3528                           ;	Clock Out Enable bit
  3529                           ;	CLKOUTEN = OFF, CLKOUT function is disabled; i/o or oscillator function on OSC2
  3530                           ;	Clock Switch Enable bit
  3531                           ;	CSWEN = ON, Writing to NOSC and NDIV is allowed
  3532                           ;	Fail-Safe Clock Monitor Enable bit
  3533                           ;	FCMEN = ON, FSCM timer enabled
  3534  8007                     	org	32775
  3535  8007  3FF9               	dw	16377
  3536                           
  3537                           ;Config register CONFIG2 @ 0x8008
  3538                           ;	Master Clear Enable bit
  3539                           ;	MCLRE = ON, MCLR pin is Master Clear function
  3540                           ;	Power-up Timer Enable bit
  3541                           ;	PWRTE = OFF, PWRT disabled
  3542                           ;	Low-Power BOR enable bit
  3543                           ;	LPBOREN = OFF, ULPBOR disabled
  3544                           ;	Brown-out reset enable bits
  3545                           ;	BOREN = ON, Brown-out Reset Enabled, SBOREN bit is ignored
  3546                           ;	Brown-out Reset Voltage Selection
  3547                           ;	BORV = LO, Brown-out Reset Voltage (VBOR) set to 1.9V on LF, and 2.45V on F Devices
  3548                           ;	Zero-cross detect disable
  3549                           ;	ZCD = OFF, Zero-cross detect circuit is disabled at POR.
  3550                           ;	Peripheral Pin Select one-way control
  3551                           ;	PPS1WAY = ON, The PPSLOCK bit can be cleared and set only once in software
  3552                           ;	Stack Overflow/Underflow Reset Enable bit
  3553                           ;	STVREN = ON, Stack Overflow or Underflow will cause a reset
  3554                           ;	Background Debugger
  3555                           ;	DEBUG = OFF, Background Debugger disabled
  3556  8008                     	org	32776
  3557  8008  3FFF               	dw	16383
  3558                           
  3559                           ;Config register CONFIG3 @ 0x8009
  3560                           ;	WDT Period Select bits
  3561                           ;	WDTCPS = WDTCPS_31, Divider ratio 1:65536; software control of WDTPS
  3562                           ;	WDT operating mode
  3563                           ;	WDTE = OFF, WDT Disabled, SWDTEN is ignored
  3564                           ;	WDT Window Select bits
  3565                           ;	WDTCWS = WDTCWS_7, window always open (100%); software control; keyed access not requi
      +                          red
  3566                           ;	WDT input clock selector
  3567                           ;	WDTCCS = SC, Software Control
  3568  8009                     	org	32777
  3569  8009  3F9F               	dw	16287
  3570                           
  3571                           ;Config register CONFIG4 @ 0x800A
  3572                           ;	UserNVM self-write protection bits
  3573                           ;	WRT = OFF, Write protection off
  3574                           ;	Scanner Enable bit
  3575                           ;	SCANE = available, Scanner module is available for use
  3576                           ;	Low Voltage Programming Enable bit
  3577                           ;	LVP = ON, Low Voltage programming enabled. MCLR/Vpp pin function is MCLR.
  3578  800A                     	org	32778
  3579  800A  3FFF               	dw	16383
  3580                           
  3581                           ;Config register CONFIG5 @ 0x800B
  3582                           ;	UserNVM Program memory code protection bit
  3583                           ;	CP = OFF, Program Memory code protection disabled
  3584                           ;	DataNVM code protection bit
  3585                           ;	CPD = OFF, Data EEPROM code protection disabled
  3586  800B                     	org	32779
  3587  800B  3FFF               	dw	16383

Data Sizes:
    Strings     99
    Constant    0
    Data        0
    BSS         14
    Persistent  32
    Stack       0

Auto Spaces:
    Space          Size  Autos    Used
    COMMON           14     14      14
    BANK0            80     23      37
    BANK1            80      0       0
    BANK2            80      0       0
    BANK3            80      0       0
    BANK4            80      0       0
    BANK5            80      0       0
    BANK6            80      0       0
    BANK7            80      0       0
    BANK8            80      0       0
    BANK9            80      0       0
    BANK10           80      0       0
    BANK11           80      0       0
    BANK12           80      0       0
    BANK13           80      0       0
    BANK14           80      0       0
    BANK15           80      0       0
    BANK16           80      0       0
    BANK17           80      0       0
    BANK18           80      0       0
    BANK19           80      0       0
    BANK20           80      0       0
    BANK21           80      0       0
    BANK22           80      0       0
    BANK23           80      0       0
    BANK24           80      0       0
    BANK25           80      0       0
    BANK26           80      0       0
    BANK27           80      0       0
    BANK28           80      0       0
    BANK29           80      0       0
    BANK30           80      0       0
    BANK31           80      0       0
    BANK32           80      0       0
    BANK33           80      0       0
    BANK34           80      0       0
    BANK35           80      0       0
    BANK36           80      0       0
    BANK37           80      0       0
    BANK38           80      0       0
    BANK39           80      0       0
    BANK40           80      0       0
    BANK41           80      0       0
    BANK42           80      0       0
    BANK43           80      0       0
    BANK44           80      0       0
    BANK45           80      0       0
    BANK46           80      0       0
    BANK47           80      0       0
    BANK48           80      0       0
    BANK49           80      0       0
    BANK50           80      0       0

Pointer List with Targets:

    sp__itoa	PTR unsigned char  size(1) Largest target is 12
		 -> itoa@buffer(BANK0[12]), 

    send_string@st_pt	PTR unsigned char  size(2) Largest target is 34
		 -> STR_8(CODE[15]), STR_7(CODE[3]), STR_6(CODE[19]), STR_5(CODE[5]), 
		 -> STR_4(CODE[10]), STR_3(CODE[4]), STR_2(CODE[12]), STR_1(CODE[34]), 
		 -> itoa@buffer(BANK0[12]), 


Critical Paths under _main in COMMON

    _main->_send_string
    _send_string->_itoa
    _itoa->___awdiv
    _dpsw_to_dc->___awdiv
    ___awdiv->___wmul

Critical Paths under _main in BANK0

    _main->_dpsw_to_dc
    _send_string->_itoa
    _itoa->___awdiv
    _dpsw_to_dc->___awdiv

Critical Paths under _main in BANK1

    None.

Critical Paths under _main in BANK2

    None.

Critical Paths under _main in BANK3

    None.

Critical Paths under _main in BANK4

    None.

Critical Paths under _main in BANK5

    None.

Critical Paths under _main in BANK6

    None.

Critical Paths under _main in BANK7

    None.

Critical Paths under _main in BANK8

    None.

Critical Paths under _main in BANK9

    None.

Critical Paths under _main in BANK10

    None.

Critical Paths under _main in BANK11

    None.

Critical Paths under _main in BANK12

    None.

Critical Paths under _main in BANK13

    None.

Critical Paths under _main in BANK14

    None.

Critical Paths under _main in BANK15

    None.

Critical Paths under _main in BANK16

    None.

Critical Paths under _main in BANK17

    None.

Critical Paths under _main in BANK18

    None.

Critical Paths under _main in BANK19

    None.

Critical Paths under _main in BANK20

    None.

Critical Paths under _main in BANK21

    None.

Critical Paths under _main in BANK22

    None.

Critical Paths under _main in BANK23

    None.

Critical Paths under _main in BANK24

    None.

Critical Paths under _main in BANK25

    None.

Critical Paths under _main in BANK26

    None.

Critical Paths under _main in BANK27

    None.

Critical Paths under _main in BANK28

    None.

Critical Paths under _main in BANK29

    None.

Critical Paths under _main in BANK30

    None.

Critical Paths under _main in BANK31

    None.

Critical Paths under _main in BANK32

    None.

Critical Paths under _main in BANK33

    None.

Critical Paths under _main in BANK34

    None.

Critical Paths under _main in BANK35

    None.

Critical Paths under _main in BANK36

    None.

Critical Paths under _main in BANK37

    None.

Critical Paths under _main in BANK38

    None.

Critical Paths under _main in BANK39

    None.

Critical Paths under _main in BANK40

    None.

Critical Paths under _main in BANK41

    None.

Critical Paths under _main in BANK42

    None.

Critical Paths under _main in BANK43

    None.

Critical Paths under _main in BANK44

    None.

Critical Paths under _main in BANK45

    None.

Critical Paths under _main in BANK46

    None.

Critical Paths under _main in BANK47

    None.

Critical Paths under _main in BANK48

    None.

Critical Paths under _main in BANK49

    None.

Critical Paths under _main in BANK50

    None.

Call Graph Tables:

 ---------------------------------------------------------------------------------
 (Depth) Function   	        Calls       Base Space   Used Autos Params    Refs
 ---------------------------------------------------------------------------------
 (0) _main                                                 3     3      0    5676
                                             13 COMMON     1     1      0
                                             21 BANK0      2     2      0
                            ___awdiv
                             ___wmul
                          _calcAngle
                         _cfg_eusart
                            _cfg_pwm
                         _dpsw_to_dc
                               _itoa
                   _ranging_sys_init
                        _send_string
                         _set_pwm_dc
 ---------------------------------------------------------------------------------
 (1) _set_pwm_dc                                           1     1      0      66
                                              0 COMMON     1     1      0
 ---------------------------------------------------------------------------------
 (1) _send_string                                          3     1      2     903
                                             12 COMMON     1     1      0
                                             10 BANK0      2     0      2
                          _calcAngle (ARG)
                               _itoa (ARG)
                          _send_char
 ---------------------------------------------------------------------------------
 (2) _send_char                                            1     1      0      22
                                              0 COMMON     1     1      0
 ---------------------------------------------------------------------------------
 (1) _ranging_sys_init                                     0     0      0       0
 ---------------------------------------------------------------------------------
 (1) _itoa                                                 7     5      2    1830
                                             11 COMMON     1     1      0
                                              4 BANK0      6     4      2
                            ___awdiv
                            ___awmod
                          _calcAngle (ARG)
 ---------------------------------------------------------------------------------
 (1) _dpsw_to_dc                                          17    17      0    1826
                                              4 BANK0     17    17      0
                            ___awdiv
                            ___awmod
                             ___bmul
 ---------------------------------------------------------------------------------
 (2) ___bmul                                               4     3      1     168
                                              0 COMMON     4     3      1
 ---------------------------------------------------------------------------------
 (2) ___awmod                                              7     3      4     600
                                              0 COMMON     7     3      4
 ---------------------------------------------------------------------------------
 (2) ___awdiv                                              9     5      4     756
                                              6 COMMON     5     1      4
                                              0 BANK0      4     4      0
                             ___wmul (ARG)
 ---------------------------------------------------------------------------------
 (1) _cfg_pwm                                              0     0      0       0
 ---------------------------------------------------------------------------------
 (1) _cfg_eusart                                           0     0      0       0
 ---------------------------------------------------------------------------------
 (1) _calcAngle                                            4     2      2      27
                                              0 COMMON     4     2      2
 ---------------------------------------------------------------------------------
 (1) ___wmul                                               6     2      4     244
                                              0 COMMON     6     2      4
 ---------------------------------------------------------------------------------
 Estimated maximum stack depth 2
 ---------------------------------------------------------------------------------

 Call Graph Graphs:

 _main (ROOT)
   ___awdiv
     ___wmul (ARG)
   ___wmul
   _calcAngle
   _cfg_eusart
   _cfg_pwm
   _dpsw_to_dc
     ___awdiv
     ___awmod
     ___bmul
   _itoa
     ___awdiv
     ___awmod
     _calcAngle (ARG)
   _ranging_sys_init
   _send_string
     _calcAngle (ARG)
     _itoa (ARG)
     _send_char (ARG)
   _set_pwm_dc

 Address spaces:
Name               Size   Autos  Total    Cost      Usage
BIGRAM             FF0      0       0       0        0.0%
EEDATA             100      0       0       0        0.0%
NULL                 0      0       0       0        0.0%
CODE                 0      0       0       0        0.0%
BITCOMMON            E      0       0       1        0.0%
BITSFR0              0      0       0       1        0.0%
SFR0                 0      0       0       1        0.0%
COMMON               E      E       E       2      100.0%
BITSFR1              0      0       0       2        0.0%
SFR1                 0      0       0       2        0.0%
BITSFR2              0      0       0       3        0.0%
SFR2                 0      0       0       3        0.0%
STACK                0      0       0       3        0.0%
BITBANK0            50      0       0       4        0.0%
BITSFR3              0      0       0       4        0.0%
SFR3                 0      0       0       4        0.0%
BANK0               50     17      25       5       46.2%
BITSFR4              0      0       0       5        0.0%
SFR4                 0      0       0       5        0.0%
BITBANK1            50      0       0       6        0.0%
BITSFR5              0      0       0       6        0.0%
SFR5                 0      0       0       6        0.0%
BANK1               50      0       0       7        0.0%
BITSFR6              0      0       0       7        0.0%
SFR6                 0      0       0       7        0.0%
BITBANK2            50      0       0       8        0.0%
BITSFR7              0      0       0       8        0.0%
SFR7                 0      0       0       8        0.0%
BANK2               50      0       0       9        0.0%
BITSFR8              0      0       0       9        0.0%
SFR8                 0      0       0       9        0.0%
BITBANK3            50      0       0      10        0.0%
BITSFR9              0      0       0      10        0.0%
SFR9                 0      0       0      10        0.0%
BANK3               50      0       0      11        0.0%
BITSFR10             0      0       0      11        0.0%
SFR10                0      0       0      11        0.0%
BITBANK4            50      0       0      12        0.0%
BITSFR11             0      0       0      12        0.0%
SFR11                0      0       0      12        0.0%
BANK4               50      0       0      13        0.0%
BITSFR12             0      0       0      13        0.0%
SFR12                0      0       0      13        0.0%
BITBANK5            50      0       0      14        0.0%
BITSFR13             0      0       0      14        0.0%
SFR13                0      0       0      14        0.0%
BANK5               50      0       0      15        0.0%
BITSFR14             0      0       0      15        0.0%
SFR14                0      0       0      15        0.0%
BITBANK6            50      0       0      16        0.0%
BITSFR15             0      0       0      16        0.0%
SFR15                0      0       0      16        0.0%
BANK6               50      0       0      17        0.0%
BITSFR16             0      0       0      17        0.0%
SFR16                0      0       0      17        0.0%
BITBANK7            50      0       0      18        0.0%
BITSFR17             0      0       0      18        0.0%
SFR17                0      0       0      18        0.0%
BANK7               50      0       0      19        0.0%
BITSFR18             0      0       0      19        0.0%
SFR18                0      0       0      19        0.0%
BITBANK8            50      0       0      20        0.0%
BITSFR19             0      0       0      20        0.0%
SFR19                0      0       0      20        0.0%
BANK8               50      0       0      21        0.0%
BITSFR20             0      0       0      21        0.0%
SFR20                0      0       0      21        0.0%
BITBANK9            50      0       0      22        0.0%
BITSFR21             0      0       0      22        0.0%
SFR21                0      0       0      22        0.0%
BANK9               50      0       0      23        0.0%
BITSFR22             0      0       0      23        0.0%
SFR22                0      0       0      23        0.0%
BITBANK10           50      0       0      24        0.0%
BITSFR23             0      0       0      24        0.0%
SFR23                0      0       0      24        0.0%
BANK10              50      0       0      25        0.0%
BITSFR24             0      0       0      25        0.0%
SFR24                0      0       0      25        0.0%
BITBANK11           50      0       0      26        0.0%
BITSFR25             0      0       0      26        0.0%
SFR25                0      0       0      26        0.0%
BANK11              50      0       0      27        0.0%
BITSFR26             0      0       0      27        0.0%
SFR26                0      0       0      27        0.0%
BITSFR27             0      0       0      28        0.0%
SFR27                0      0       0      28        0.0%
ABS                  0      0      33      28        0.0%
BITBANK12           50      0       0      29        0.0%
BITSFR28             0      0       0      29        0.0%
SFR28                0      0       0      29        0.0%
BANK12              50      0       0      30        0.0%
BITSFR29             0      0       0      30        0.0%
SFR29                0      0       0      30        0.0%
BITBANK13           50      0       0      31        0.0%
BITSFR30             0      0       0      31        0.0%
SFR30                0      0       0      31        0.0%
BANK13              50      0       0      32        0.0%
BITSFR31             0      0       0      32        0.0%
SFR31                0      0       0      32        0.0%
BITBANK14           50      0       0      33        0.0%
BITSFR32             0      0       0      33        0.0%
SFR32                0      0       0      33        0.0%
BANK14              50      0       0      34        0.0%
BITSFR33             0      0       0      34        0.0%
SFR33                0      0       0      34        0.0%
BITBANK15           50      0       0      35        0.0%
BITSFR34             0      0       0      35        0.0%
SFR34                0      0       0      35        0.0%
BANK15              50      0       0      36        0.0%
BITSFR35             0      0       0      36        0.0%
SFR35                0      0       0      36        0.0%
BITBANK16           50      0       0      37        0.0%
BITSFR36             0      0       0      37        0.0%
SFR36                0      0       0      37        0.0%
BANK16              50      0       0      38        0.0%
BITSFR37             0      0       0      38        0.0%
SFR37                0      0       0      38        0.0%
BITBANK17           50      0       0      39        0.0%
BITSFR38             0      0       0      39        0.0%
SFR38                0      0       0      39        0.0%
BANK17              50      0       0      40        0.0%
BITSFR39             0      0       0      40        0.0%
SFR39                0      0       0      40        0.0%
BITBANK18           50      0       0      41        0.0%
BITSFR40             0      0       0      41        0.0%
SFR40                0      0       0      41        0.0%
BANK18              50      0       0      42        0.0%
BITSFR41             0      0       0      42        0.0%
SFR41                0      0       0      42        0.0%
BITBANK19           50      0       0      43        0.0%
BITSFR42             0      0       0      43        0.0%
SFR42                0      0       0      43        0.0%
BANK19              50      0       0      44        0.0%
BITSFR43             0      0       0      44        0.0%
SFR43                0      0       0      44        0.0%
BITBANK20           50      0       0      45        0.0%
BITSFR44             0      0       0      45        0.0%
SFR44                0      0       0      45        0.0%
BANK20              50      0       0      46        0.0%
BITSFR45             0      0       0      46        0.0%
SFR45                0      0       0      46        0.0%
BITBANK21           50      0       0      47        0.0%
BITSFR46             0      0       0      47        0.0%
SFR46                0      0       0      47        0.0%
BANK21              50      0       0      48        0.0%
BITSFR47             0      0       0      48        0.0%
SFR47                0      0       0      48        0.0%
BITBANK22           50      0       0      49        0.0%
BITSFR48             0      0       0      49        0.0%
SFR48                0      0       0      49        0.0%
BANK22              50      0       0      50        0.0%
BITSFR49             0      0       0      50        0.0%
SFR49                0      0       0      50        0.0%
BITBANK23           50      0       0      51        0.0%
BITSFR50             0      0       0      51        0.0%
SFR50                0      0       0      51        0.0%
BANK23              50      0       0      52        0.0%
BITSFR51             0      0       0      52        0.0%
SFR51                0      0       0      52        0.0%
BITBANK24           50      0       0      53        0.0%
BITSFR52             0      0       0      53        0.0%
SFR52                0      0       0      53        0.0%
BANK24              50      0       0      54        0.0%
BITSFR53             0      0       0      54        0.0%
SFR53                0      0       0      54        0.0%
BITBANK25           50      0       0      55        0.0%
BITSFR54             0      0       0      55        0.0%
SFR54                0      0       0      55        0.0%
BANK25              50      0       0      56        0.0%
BITSFR55             0      0       0      56        0.0%
SFR55                0      0       0      56        0.0%
BITBANK26           50      0       0      57        0.0%
BITSFR56             0      0       0      57        0.0%
SFR56                0      0       0      57        0.0%
BANK26              50      0       0      58        0.0%
BITSFR57             0      0       0      58        0.0%
SFR57                0      0       0      58        0.0%
BITSFR58             0      0       0      59        0.0%
SFR58                0      0       0      59        0.0%
DATA                 0      0      33      59        0.0%
BITBANK27           50      0       0      60        0.0%
BITSFR59             0      0       0      60        0.0%
SFR59                0      0       0      60        0.0%
BANK27              50      0       0      61        0.0%
BITSFR60             0      0       0      61        0.0%
SFR60                0      0       0      61        0.0%
BITBANK28           50      0       0      62        0.0%
BITSFR61             0      0       0      62        0.0%
SFR61                0      0       0      62        0.0%
BANK28              50      0       0      63        0.0%
BITSFR62             0      0       0      63        0.0%
SFR62                0      0       0      63        0.0%
BITBANK29           50      0       0      64        0.0%
BITSFR63             0      0       0      64        0.0%
SFR63                0      0       0      64        0.0%
BANK29              50      0       0      65        0.0%
BITBANK30           50      0       0      66        0.0%
BANK30              50      0       0      67        0.0%
BITBANK31           50      0       0      68        0.0%
BANK31              50      0       0      69        0.0%
BITBANK32           50      0       0      70        0.0%
BANK32              50      0       0      71        0.0%
BITBANK33           50      0       0      72        0.0%
BANK33              50      0       0      73        0.0%
BITBANK34           50      0       0      74        0.0%
BANK34              50      0       0      75        0.0%
BITBANK35           50      0       0      76        0.0%
BANK35              50      0       0      77        0.0%
BITBANK36           50      0       0      78        0.0%
BANK36              50      0       0      79        0.0%
BITBANK37           50      0       0      80        0.0%
BANK37              50      0       0      81        0.0%
BITBANK38           50      0       0      82        0.0%
BANK38              50      0       0      83        0.0%
BITBANK39           50      0       0      84        0.0%
BANK39              50      0       0      85        0.0%
BITBANK40           50      0       0      86        0.0%
BANK40              50      0       0      87        0.0%
BITBANK41           50      0       0      88        0.0%
BANK41              50      0       0      89        0.0%
BITBANK42           50      0       0      90        0.0%
BANK42              50      0       0      91        0.0%
BITBANK43           50      0       0      92        0.0%
BANK43              50      0       0      93        0.0%
BITBANK44           50      0       0      94        0.0%
BANK44              50      0       0      95        0.0%
BITBANK45           50      0       0      96        0.0%
BANK45              50      0       0      97        0.0%
BITBANK46           50      0       0      98        0.0%
BANK46              50      0       0      99        0.0%
BITBANK47           50      0       0     100        0.0%
BANK47              50      0       0     101        0.0%
BITBANK48           50      0       0     102        0.0%
BANK48              50      0       0     103        0.0%
BITBANK49           50      0       0     104        0.0%
BANK49              50      0       0     105        0.0%
BITBANK50           50      0       0     106        0.0%
BANK50              50      0       0     107        0.0%


Microchip Technology PIC Macro Assembler V2.32 build 20210201212658 
Symbol Table                                                                                   Sat Jul 31 21:51:15 2021

           ___bmul@product 0072                         l81 0477                         l90 04ED  
                       l75 0490                         l84 047F                         l93 04D4  
                       l78 0530                         l96 053F                         l98 054C  
             ___awdiv@sign 0021        ___wmul@multiplicand 0072                        l102 055F  
                      l111 0607                        l120 04BC                        l131 06AF  
                      l132 06F7                        l109 05F5                        l141 0729  
                      l303 04F8                        l143 072D                        l144 072E  
                      l305 050C                        l146 0732                        l329 04A5  
                      l456 0667                        l469 05B2                        _RA0 0060  
                      _RA1 0061                        _RB0 0068                        _RA2 0062  
                      _RB1 0069                        _RA3 0063                        u500 0497  
                      u501 0496                        u510 04A4                        _PR2 028D  
                      u511 04A3                        u600 0659                        u520 060E  
                      u601 0658                        u521 060D                        u610 065E  
                      u530 0619                        u611 065D                        u531 0618  
                      u540 062A                        u700 05A9                        u620 0565  
                      u541 0629                        u701 05A8                        u621 0564  
                      u630 0570                        u710 04ED                        u631 056F  
                      u711 04EC                        u720 0536                        u560 063A  
                      u640 057B                        u800 05F9                        u721 0535  
                      u561 0639                        u641 057A                        u801 05F8  
                      u730 053A                        u490 047C                        u810 04AD  
                      u731 0539                        u555 062E                        u491 047B  
                      u811 04AC                        u740 0543                        u580 0649  
                      u660 058B                        u820 04B6                        u741 0542  
                      u581 0648                        u661 058A                        u821 04B5  
                      u750 0547                        u670 0595                        u830 066D  
                      u751 0546                        u575 063B                        u671 0594  
                      u655 057F                        u831 066C                        u920 0508  
                      u760 0550                        u840 0678                        u921 0507  
                      u905 04F9                        u761 054F                        u585 0645  
                      u841 0677                        u770 0554                        u690 05A4  
                      u850 0683                        u930 072D                        u915 04FE  
                      u771 0553                        u595 064F                        u691 05A3  
                      u675 0591                        u851 0682                        u931 072C  
                      u860 068E                        u780 05C1                        u940 0732  
                      u685 059A                        u861 068D                        u781 05C0  
                      u941 0731                        u870 06AD                        u790 05F5  
                      u950 076B                        u871 06AC                        u791 05F4  
                      u951 076A                        u880 06F5                        u960 0779  
                      u881 06F4                        u961 0778                        u890 04F4  
                      u891 04F3                        u955 0767                        u885 06F1  
                      u965 0775                        u977 0707                        u987 07EB  
             ___awmod@sign 0076                        wreg 0009               _BAUD1CONbits 011F  
                     l1101 0615                       l1111 062A                       l1103 0619  
                     l1121 0649                       l1113 062D                       l1105 061E  
                     l1201 04D6                       l1131 065E                       l1123 064D  
                     l1115 0632                       l1107 0622                       l1211 04C5  
                     l1203 04DE                       l1133 0663                       l1125 064E  
                     l1117 0636                       l1109 0624                       l1141 0565  
                     l1301 0695                       l1221 04CF                       l1213 04C7  
                     l1205 04E3                       l1231 053A                       l1127 0653  
                     l1119 063A                       l1151 057B                       l1143 056A  
                     l1311 06B1                       l1303 06A7                       l1223 04D0  
                     l1215 04C8                       l1207 04BD                       l1241 0559  
                     l1233 0543                       l1225 0531                       l1129 0659  
                     l1161 0595                       l1153 057E                       l1145 056C  
                     l1137 0560                       l1081 0493                       l1313 06B6  
                     l1305 06AD                       l1217 04C9                       l1209 04C3  
                     l1331 0502                       l1323 04EE                       l1235 0547  
                     l1243 055B                       l1227 0531                       l1171 05AE  
                     l1163 0599                       l1155 0583                       l1147 0570  
                     l1139 0561                       l1083 0497                       l1315 06E4  
                     l1251 05BD                       l1219 04CB                       l1075 0477  
                     l1333 0508                       l1325 04F0                       l1237 0550  
                     l1229 0536                       l1181 0488                       l1093 0608  
                     l1165 059E                       l1157 0587                       l1149 0575  
                     l1085 049B                       l1317 06E8                       l1309 06B1  
                     l1261 05F9                       l1253 05C1                       l1077 047C  
                     l1341 070E                       l1327 04F4                       l1239 0554  
                     l1191 048E                       l1183 048A                       l1175 0480  
                     l1095 060A                       l1159 058B                       l1167 05A4  
                     l1087 049D                       l1079 0492                       l1319 06F5  
                     l1263 0605                       l1255 05C6                       l1247 05B3  
                     l1271 04B1                       l1351 071F                       l1343 0716  
                     l1329 04FD                       l1193 048F                       l1185 048B  
                     l1177 0484                       l1097 060E                       l1169 05A9  
                     l1089 04A4                       l1281 0672                       l1257 05DF  
                     l1249 05BC                       l1273 04B6                       l1361 0737  
                     l1353 0723                       l1345 0716                       l1337 06F8  
                     l1187 048C                       l1179 0486                       l1195 050D  
                     l1099 0613                       l1291 0683                       l1283 0674  
                     l1259 05EF                       l1275 04B9                       l1267 04A7  
                     l1371 0779                       l1363 0752                       l1355 0724  
                     l1347 071C                       l1339 0701                       l1189 048D  
                     l1197 051B                       l1293 0688                       l1285 0678  
                     l1277 0668                       l1269 04AD                       l1381 07C2  
                     l1373 0781                       l1365 0758                       l1357 0727  
                     l1349 071E                       l1295 068A                       l1287 067D  
                     l1279 066D                       l1199 04D5                       l1383 07D4  
                     l1375 0790                       l1367 075E                       l1359 0733  
                     l1297 068E                       l1289 067F                       l1377 0798  
                     l1369 076B                       l1385 07DD                       l1299 0693  
                     l1387 07E5                       l1379 07A0                       STR_1 0800  
                     STR_2 0844                       STR_3 085F                       STR_4 0850  
                     STR_5 085A                       STR_6 0822                       STR_7 0841  
                     STR_8 0835                       _TXIF 387C                       _main 06F8  
                     _itoa 05B3                       fsr0h 0005                       fsr1h 0007  
                     indf0 0000                       fsr0l 0004                       indf1 0001  
                     fsr1l 0006                       btemp 007E                       start 0002  
        ___bmul@multiplier 0073                      ?_main 0070                      ?_itoa 0024  
          __end_of___awdiv 0668            __end_of___awmod 05B3            ___awdiv@divisor 0076  
                    _T2CON 028E            ___awdiv@counter 0020                      _TMR0H 001D  
                    _TMR0L 001C            __end_of_cfg_pwm 0531                      _TXREG 011A  
                    itoa@c 0028                      status 0003                      wtemp0 007E  
          __initialization 07F5               __end_of_main 07F5               __end_of_itoa 0608  
                   ??_main 0035                     ??_itoa 007B                     _CCPR2H 0311  
                   _CCPR2L 0310           ___awdiv@dividend 0078                     _ANSELB 1F43  
                   _RB5PPS 1F1D                     _RC6PPS 1F26               ?_send_string 002A  
                   ___bmul 0491                     ___wmul 04EE                  ??___awdiv 007A  
                ??___awmod 0074                  ??_cfg_pwm 0070           ___awdiv@quotient 0022  
          ___awmod@divisor 0070            ___awmod@counter 0075                     main@dc 007D  
 __end_of_ranging_sys_init 04D5    __end_of__initialization 07FD         __size_of_calcAngle 002F  
      ___bmul@multiplicand 0070             __pcstackCOMMON 0070                 _cfg_eusart 0480  
               __pbssBANK0 0037                 __pmaintext 06F8                    ?___bmul 0070  
                  ?___wmul 0070         __size_of_send_char 000A                    _CCP2CON 0312  
        __end_of_calcAngle 0560                    _SP1BRGH 011C                    _SP1BRGL 011B  
             dpsw_to_dc@d0 0028               dpsw_to_dc@d1 002A               dpsw_to_dc@d2 002C  
             dpsw_to_dc@d3 002E       __size_of_send_string 0019            __size_of___bmul 0015  
               _dpsw_to_dc 0668                    ___awdiv 0608                    ___awmod 0560  
          __size_of___wmul 001F                    _cfg_pwm 050D                    __ptext1 04A6  
                  __ptext2 04D5                    __ptext3 0476                    __ptext4 04BD  
                  __ptext5 05B3                    __ptext6 0668                    __ptext7 0491  
                  __ptext8 0560                    __ptext9 0608           ___awmod@dividend 0072  
                  clrloop0 0471                ?_cfg_eusart 0070       end_of_initialization 07FD  
        __end_of_send_char 0480         dpsw_to_dc@binary_d 0033                 _set_pwm_dc 04A6  
             itoa@original 0026              send_char@word 0070                  _PORTBbits 000D  
        ?_ranging_sys_init 0070                  _TRISAbits 0011                  _TRISBbits 0012  
                _TRISCbits 0013         ??_ranging_sys_init 0070             calcAngle@angle 0072  
       dpsw_to_dc@num_base 0031                ?_dpsw_to_dc 0070             __end_of___bmul 04A6  
           __end_of___wmul 050D        __size_of_cfg_eusart 0011        start_initialization 07F5  
                 ??___bmul 0071                ?_set_pwm_dc 0070                   ??___wmul 0074  
               itoa@buffer 0039                  ___latbits 0004              __pcstackBANK0 0020  
                _calcAngle 0531        __size_of_dpsw_to_dc 0090                   ?___awdiv 0076  
                 ?___awmod 0070                   ?_cfg_pwm 0070                   _CCPTMRS0 021E  
               ?_calcAngle 0070               ??_cfg_eusart 0070                   _T2CLKCON 0290  
      __size_of_set_pwm_dc 0017              ??_send_string 007C             ___wmul@product 0074  
                 _LATBbits 0017                  clear_ram0 0470      dpsw_to_dc@decimal_num 0032  
                _send_char 0476         __end_of_cfg_eusart 0491          ___wmul@multiplier 0070  
         send_string@st_pt 002A              dpsw_to_dc@rem 0030  __size_of_ranging_sys_init 0018  
               ?_send_char 0070        __end_of_send_string 04EE               ??_dpsw_to_dc 0024  
                itoa@value 0024           __size_of___awdiv 0060           __size_of___awmod 0053  
         __size_of_cfg_pwm 0024                 _ANSELAbits 1F38                 _ANSELBbits 1F43  
               _ANSELCbits 1F4E                 _T0CON0bits 001E                 _T0CON1bits 001F  
                 __ptext10 050D                   __ptext11 0480                   __ptext12 0531  
                 __ptext13 04EE                ??_calcAngle 0072                   _distance 0037  
       __end_of_dpsw_to_dc 06F8              __size_of_main 00FD              __size_of_itoa 0055  
               _RC1STAbits 011D               ??_set_pwm_dc 0070         __end_of_set_pwm_dc 04BD  
             set_pwm_dc@dc 0070                _send_string 04D5                ??_send_char 0070  
            __pstringtext1 0800              __pstringtext2 0822              __pstringtext3 0835  
            __pstringtext4 0844              __pstringtext5 0850              __pstringtext6 085A  
            __pstringtext7 085F              __pstringtext8 0000                 _TX1STAbits 011E  
         _ranging_sys_init 04BD  
